(dp0
V\u6181
p1
I3
sV\u8000
p2
I298
sV\u6785
p3
I1
sV\u6d89
p4
I210
sV\u8c08
p5
I371
sV\u4f0a
p6
I501
sV\u920c
p7
I1
sV\u8599
p8
I21
sV\u4e9f
p9
I9
sV\u6d1e
p10
I1555
sV\u7322
p11
I2
sV\u60ab
p12
I4
sV\u7f2a
p13
I32
sV\u6cb3
p14
I2666
sV\u4e34
p15
I2695
sV\u72b7
p16
I8
sV\u5438
p17
I64
sV\u78bb
p18
I1
sV\u5a3c
p19
I19
sV\u7ebf
p20
I167
sV\u53cd
p21
I295
sV\u724c
p22
I19
sV\u96cf
p23
I287
sV\u59d1
p24
I277
sV\u7850
p25
I1
sV\u5362
p26
I218
sV\u77e5
p27
I8375
sV\u9664
p28
I514
sV\u5f6a
p29
I12
sV\u83ed
p30
I1
sV\u89f1
p31
I13
sV\u52f7
p32
I4
sV\u95f9
p33
I81
sV\u777a
p34
I1
sV\u5eff
p35
I1
sV\u8986
p36
I632
sV\u5890
p37
I4
sV\u5e94
p38
I4683
sV\u881b
p39
I4
sV\u8e1f
p40
I110
sV\u5121
p41
I1
sV\u76a4
p42
I40
sV\u9a27
p43
I12
sV\u5d29
p44
I166
sV\u82ac
p45
I138
sV\u51b6
p46
I93
sV\u9abc
p47
I6
sV\u5dbe
p48
I1
sV\u8d49
p49
I7
sV\u6fca
p50
I1
sV\u564f
p51
I1
sV\u75ce
p52
I2
sV\u87da
p53
I1
sV\u6e5f
p54
I37
sV\u8dde
p55
I2
sV\u56e4
p56
I4
sV\u5ce8
p57
I372
sVk
p58
I16
sV\u62ec
p59
I18
sV\u68f0
p60
I1
sV\u8c73
p61
I12
sV\u6ef4
p62
I682
sV\u987b
p63
I2480
sV\u5b7d
p64
I30
sV\u9e7f
p65
I516
sV\u6081
p66
I10
sV\u6c89
p67
I983
sV\u4e0a
p68
I10848
sV\u728d
p69
I6
sV\u540e
p70
I3524
sV\u7891
p71
I242
sV\u9910
p72
I329
sV\u7e95
p73
I1
sV\u6016
p74
I11
sV\u8499
p75
I528
sV\u55a3
p76
I14
sV\u96a5
p77
I1
sV\u7826
p78
I2
sV\u67af
p79
I753
sV\u4f34
p80
I995
sV\u73b7
p81
I38
sV\u9036
p82
I157
sV\u79bb
p83
I3324
sV\u7fbf
p84
I15
sV\u6d48
p85
I1
sV\u52cd
p86
I12
sV\u734c
p87
I1
sV\u58d1
p88
I471
sV\u7950
p89
I26
sV\u7f54
p90
I51
sV\u76e5
p91
I51
sV\u5e6a
p92
I2
sV\u53f7
p93
I404
sV\u7076
p94
I154
sV\u59fb
p95
I52
sV\u9afd
p96
I5
sV\u5fff
p97
I18
sV\u6503
p98
I1
sV\u8282
p99
I1735
sV\u538c
p100
I615
sV\u8317
p101
I151
sV\u5021
p102
I75
sV\u71a0
p103
I32
sV\u9523
p104
I1
sV\u77a4
p105
I1
sV\u6831
p106
I15
sV\u7a3d
p107
I212
sVA
p108
I6
sV\u62c2
p109
I1421
sV\u68c6
p110
I1
sV\u8c49
p111
I3
sV\u514b
p112
I82
sV\u574f
p113
I168
sV\u9e55
p114
I2
sV\u80d6
p115
I2
sV\u695b
p116
I3
sV\u86da
p117
I4
sV\u51e0
p118
I3344
sV\u57e4
p119
I3
sV\u5de8
p120
I197
sV\u9eea
p121
I2
sV\u8d73
p122
I6
sV\u6ff4
p123
I1
sV\u9f7f
p124
I362
sV\u6381
p125
I5
sV\u6585
p126
I15
sV\u8404
p127
I47
sV\u6f89
p128
I1
sV\u900c
p129
I1
sV\u7b91
p130
I4
sV\u56a3
p131
I103
sV\u7b26
p132
I432
sV\u62ab
p133
I695
sV\u872e
p134
I4
sV\u6eb3
p135
I4
sV\u70b7
p136
I63
sV\u953a
p137
I1
sV\u9f3e
p138
I1
sV\u6240
p139
I2755
sV\u6444
p140
I37
sV\u92cb
p141
I36
sV\u704c
p142
I118
sV\u94cf
p143
I2
sV\u67d9
p144
I4
sV\u4f5e
p145
I66
sV\u5162
p146
I48
sV\u5b66
p147
I1420
sV\u7fe9
p148
I411
sV\u81ed
p149
I34
sV\u8bf1
p150
I51
sV\u4ef3
p151
I1
sV\u8df5
p152
I151
sV\u5cff
p153
I1
sV\u7f7e
p154
I29
sV\u6603
p155
I15
sV\u8182
p156
I9
sV\u6807
p157
I239
sV\u4e88
p158
I347
sV\u8d8a
p159
I1079
sV\u740f
p160
I7
sV\u7e13
p161
I1
sV\u9992
p162
I1
sV\u5c94
p163
I2
sV\u8017
p164
I42
sV\u8c1f
p165
I86
sV\u5321
p166
I169
sV\u5f29
p167
I36
sV\u7ea8
p168
I74
sV\u80ac
p169
I1
sV\u6d35
p170
I2
sV\u7739
p171
I2
sV\u914d
p172
I124
sV\u9b51
p173
I41
sV\u9d55
p174
I2
sV\u83d6
p175
I51
sV\u6a5b
p176
I12
sV\u6c5f
p177
I7195
sV\u8fde
p178
I2609
sV\u7663
p179
I2
sV\u54e4
p180
I1
sV\u5ee8
p181
I14
sV\u60ec
p182
I153
sV\u8e73
p183
I1
sV\u76f8
p184
I9386
sV\u9a7b
p185
I524
sV\u597d
p186
I2696
sV\u8300
p187
I3
sV\u6485
p188
I4
sV\u6e89
p189
I26
sV\u8f08
p190
I33
sV\u560e
p191
I6
sV\u7a91
p192
I7
sV\u9b10
p193
I28
sV\u7c95
p194
I5
sV\u6216
p195
I538
sV\u889d
p196
I1
sV\u57a3
p197
I235
sV\u94a5
p198
I35
sV\u63ab
p199
I1
sV\u7c2a
p200
I509
sV\u65af
p201
I583
sV\u6fb3
p202
I5
sV\u8832
p203
I27
sV\u9e3e
p204
I785
sV\u89c7
p205
I9
sV\u6f48
p206
I12
sV\u714c
p207
I148
sV\u7b50
p208
I85
sV\u66d9
p209
I552
sV\u8758
p210
I3
sV\u895c
p211
I46
sV\u4e5e
p212
I292
sV\u72e1
p213
I41
sV\u7ee9
p214
I66
sV\u80ed
p215
I29
sV\u666e
p216
I30
sV\u4ff3
p217
I2
sV\u96f9
p218
I22
sV\u5bfb
p219
I2246
sV\u5dff
p220
I1
sV\u6907
p221
I1
sV\u4f88
p222
I31
sV\u8c8a
p223
I13
sV\u300d
p224
I1
sV\u518c
p225
I67
sV\u7f13
p226
I182
sV\u9892
p227
I2
sV\u5d94
p228
I32
sV\u6798
p229
I4
sV\u699c
p230
I177
sV\u8d1f
p231
I788
sV\u73a0
p232
I13
sV\u9723
p233
I1
sV\u9927
p234
I1
sV\u5e29
p235
I3
sV\u6a31
p236
I152
sV\u8bb0
p237
I413
sV\u5ebe
p238
I163
sV\u8e49
p239
I209
sV\u6cca
p240
I408
sV\u904d
p241
I771
sV\u76ce
p242
I15
sV\u5f53
p243
I3437
sV\u9e4e
p244
I2
sV\u6d5f
p245
I1
sV\u53e0
p246
I553
sV\u7763
p247
I14
sV\u90e2
p248
I196
sV\u55e4
p249
I59
sV\u7967
p250
I5
sV\u9ae6
p251
I32
sV\u836b
p252
I116
sV\u6bf0
p253
I7
sV\u8f73
p254
I66
sV\u9177
p255
I51
sV\u6581
p256
I6
sV\u8204
p257
I69
sV\u6989
p258
I2
sV\u8808
p259
I1
sV\u778d
p260
I2
sV\u960c
p261
I1
sV\u7b95
p262
I74
sV\u631a
p263
I4
sV\u7722
p264
I4
sV\u5ea7
p265
I422
sV\u68b3
p266
I239
sV\u7cbb
p267
I2
sV\u5e3c
p268
I3
sV\u7abf
p269
I4
sV\u80c3
p270
I6
sV\u6848
p271
I201
sV\u5dd1
p272
I7
sV\u98d3
p273
I16
sV\u8058
p274
I38
sV\u8e5c
p275
I1
sV\u75e1
p276
I2
sV\u73e5
p277
I37
sV\u79e9
p278
I142
sV\u87ed
p279
I4
sV\u8df1
p280
I2
sV\u8bf5
p281
I146
sV\u56f7
p282
I31
sV\u5cfb
p283
I167
sV\u6003
p284
I5
sV\u8782
p285
I7
sV\u918e
p286
I1
sV\u5c90
p287
I406
sV\u8617
p288
I1
sV\u8c1b
p289
I16
sV\u6e9c
p290
I156
sV\u74a0
p291
I20
sV\u5929
p292
I11866
sV\u78a8
p293
I3
sV\u672d
p294
I137
sV\u86ac
p295
I3
sV\u6d31
p296
I1
sV\u4fb2
p297
I1
sV\u90b8
p298
I76
sV\u59be
p299
I696
sV\u67c2
p300
I1
sV\u6dc6
p301
I2
sV\u71ce
p302
I60
sV\u85d6
p303
I1
sV\u6c5b
p304
I1
sV\u89de
p305
I408
sV\u52e4
p306
I711
sV\u846b
p307
I14
sV\u826f
p308
I1106
sV\u6cf0
p309
I272
sV\u9677
p310
I99
sV\u5179
p311
I853
sV\u7efc
p312
I5
sV\u9a7f
p313
I495
sV\u8500
p314
I1
sV\u8304
p315
I3
sV\u9d10
p316
I1
sV\u7a95
p317
I129
sV\u9b14
p318
I1
sV\u621a
p319
I302
sV\u8e9d
p320
I1
sV\u7622
p321
I10
sV\u7c26
p322
I12
sV\u65ab
p323
I102
sV.
p324
I1336
sV\u77b7
p325
I1
sV\u9436
p326
I1
sV\u5f3c
p327
I18
sV\u6344
p328
I1
sV\u8fc7
p329
I3404
sV\u7b54
p330
I207
sV\u60d9
p331
I1
sV\u9560
p332
I2
sV\u5662
p333
I4
sV\u5c66
p334
I54
sV\u5a6a
p335
I5
sV\u86ed
p336
I4
sV\u6e72
p337
I184
sV\u8af5
p338
I2
sV\u7476
p339
I763
sV\u727a
p340
I30
sV\u5bff
p341
I538
sV\u787e
p342
I8
sV\u750b
p343
I1
sV\u578c
p344
I1
sV\u7913
p345
I1
sV\u9e92
p346
I104
sV\u8717
p347
I40
sV\u6198
p348
I1
sV\u4e1d
p349
I1467
sV\u6f9c
p350
I172
sV\u75a0
p351
I41
sV\u9123
p352
I5
sV\u79a8
p353
I1
sV\u662d
p354
I531
sV\u87ac
p355
I4
sV\u4eb2
p356
I1671
sV\u6a35
p357
I478
sV\u8bb4
p358
I96
sV\u7039
p359
I2
sV\u8245
p360
I8
sV\u6cc6
p361
I2
sV\u8849
p362
I1
sV\u964d
p363
I723
sV\u534f
p364
I56
sV\u7ed2
p365
I1
sV\u4fdc
p366
I13
sV\u53e4
p367
I4008
sV\u59e8
p368
I10
sV\u67ec
p369
I1
sV\u836f
p370
I1310
sV\u6df0
p371
I2
sV\u9777
p372
I2
sV\u5e7d
p373
I2688
sV\u7ffc
p374
I553
sV\u6781
p375
I1169
sV\u8004
p376
I9
sV\u6b89
p377
I13
sV\u7f91
p378
I2
sV\u5d12
p379
I31
sV\u4e9b
p380
I73
sV\u611a
p381
I351
sV\u52a3
p382
I55
sV\u91a5
p383
I2
sV\u5ca7
p384
I50
sV\u7f26
p385
I18
sV\u60af
p386
I36
sV\u4e30
p387
I411
sV\u8d32
p388
I26
sV\u9736
p389
I1
sV\u5238
p390
I8
sV\u7ebb
p391
I54
sV\u5c3c
p392
I76
sV\u6640
p393
I1
sV\u6044
p394
I1
sV\u90cf
p395
I3
sV\u7e50
p396
I18
sV\u9ad3
p397
I82
sV\u8258
p398
I24
sV\u6ddd
p399
I7
sV\u71e5
p400
I31
sV\u5f66
p401
I91
sV\u636e
p402
I82
sV\u7b7e
p403
I32
sV\u6203
p404
I2
sV\u548c
p405
I2074
sV\u5e90
p406
I528
sV\u9d92
p407
I59
sV\u6298
p408
I1177
sV\u76a0
p409
I1
sV\u6f31
p410
I152
sV\u6935
p411
I1
sV\u88b4
p412
I40
sV\u5bbe
p413
I668
sV\u65c2
p414
I60
sV\u6fc6
p415
I69
sV\u69ca
p416
I28
sV\u504f
p417
I1157
sV\u9f51
p418
I15
sV\u9955
p419
I8
sV\u6e5b
p420
I136
sV\ue85f
p421
I25
sV\u8bde
p422
I52
sV\u56e0
p423
I2430
sV\u7263
p424
I1
sV\u7c67
p425
I1
sV\u866b
p426
I503
sV\u99ea
p427
I2
sVo
p428
I14
sV\u72f8
p429
I42
sV\u5d7d
p430
I6
sV\u987f
p431
I167
sV\u8700
p432
I746
sV\u6a89
p433
I1
sV\u520e
p434
I6
sV\u9f10
p435
I11
sV\u7895
p436
I9
sV\u9914
p437
I9
sV\u8299
p438
I452
sV\u4f9b
p439
I244
sV\u7422
p440
I85
sV\u67ab
p441
I307
sV\u61af
p442
I6
sV\u4f30
p443
I23
sV\u6bb3
p444
I10
sV\u8c32
p445
I8
sV\u9636
p446
I887
sV\u6740
p447
I622
sV\u6b48
p448
I16
sV\u54cd
p449
I640
sV\u754c
p450
I365
sV\u91cf
p451
I315
sV\u5ed1
p452
I1
sV\u7f50
p453
I1
sV\u58d5
p454
I17
sV\u7954
p455
I3
sV\u62d9
p456
I269
sV\u8d5c
p457
I10
sV\u9760
p458
I2
sV\u5462
p459
I1
sV\u9164
p460
I41
sV\u6c72
p461
I183
sV\u55f7
p462
I54
sV\u5ffb
p463
I81
sV\u707a
p464
I10
sV\u59ff
p465
I408
sV\u7a7e
p466
I2
sV\u8482
p467
I75
sV\u770b
p468
I4264
sV\u558c
p469
I2
sV\u5f90
p470
I335
sV\u7b13
p471
I1
sV\u8517
p472
I23
sV\u6398
p473
I44
sV\u77a0
p474
I3
sV\u5025
p475
I2
sV\u5a29
p476
I11
sV\u7ba8
p477
I55
sV\u642d
p478
I12
sV\u8fb0
p479
I478
sV\u50ba
p480
I1
sV\u5abe
p481
I5
sV\u64c2
p482
I3
sVE
p483
I10
sV\u72ce
p484
I155
sV\u9e51
p485
I20
sV\u7cd2
p486
I1
sV\u80da
p487
I8
sV\u94e2
p488
I47
sV\u51e4
p489
I2083
sV\u9ee6
p490
I5
sV\u5be8
p491
I13
sV\u65ec
p492
I217
sV\u816f
p493
I1
sV\u4e71
p494
I1695
sV\u8b73
p495
I1
sV\u997f
p496
I70
sV\u8800
p497
I1
sV\u5d0e
p498
I66
sV\u9010
p499
I1566
sV\u9614
p500
I501
sV\u5ca3
p501
I4
sV\u7126
p502
I139
sV\u68ab
p503
I2
sV\u6eaf
p504
I67
sV\u8d2e
p505
I139
sV\u5c38
p506
I93
sV\u76bf
p507
I1
sV\u953e
p508
I2
sV\u6840
p509
I12
sV\u6e44
p510
I99
sV\u82c7
p511
I136
sV\u6448
p512
I11
sV\u98cb
p513
I6
sV\u9ecf
p514
I71
sV\u51d1
p515
I18
sV\u94d3
p516
I46
sV\u6dd9
p517
I36
sV\u4f5a
p518
I7
sV\u7fe5
p519
I41
sV\u9e64
p520
I2161
sV\u576a
p521
I1
sV\u8bed
p522
I2076
sV\u6d6e
p523
I2022
sV\u7976
p524
I1
sV\u50fb
p525
I203
sV\u56ff
p526
I22
sV\u6c03
p527
I2
sV\u878a
p528
I2
sV\u5a8c
p529
I1
sV\u5f25
p530
I310
sV\u7ea4
p531
I460
sV\u74a8
p532
I22
sV\u6735
p533
I155
sV\u86b4
p534
I2
sV\u9cb8
p535
I214
sV\u55be
p536
I1
sV\u8941
p537
I5
sV\u6bc2
p538
I102
sV\u8549
p539
I141
sV\u9b4d
p540
I27
sV\u7267
p541
I297
sV\u91e6
p542
I1
sV\u886b
p543
I266
sV\u60f0
p544
I19
sV\u8473
p545
I61
sV\u66f4
p546
I4461
sV\u9a77
p547
I105
sV\u72fc
p548
I245
sV\u6881
p549
I1118
sV\u6e85
p550
I139
sV\u7a8d
p551
I23
sV\u9b0c
p552
I3
sV\u5212
p553
I35
sV\u6816
p554
I1301
sV\u8c99
p555
I13
sV\u6e1a
p556
I626
sV\u829d
p557
I402
sV\u98a1
p558
I9
sV\u94a9
p559
I436
sV\u8c2e
p560
I6
sV\u8232
p561
I15
sV\u9e3a
p562
I2
sV\u533c
p563
I11
sV\u77bf
p564
I61
sV\u8dc3
p565
I243
sV\u4ec5
p566
I20
sV\u83c7
p567
I1
sV\u6548
p568
I168
sV\u7b4c
p569
I56
sV\u95d3
p570
I4
sV\u6cd9
p571
I2
sV\u8d58
p572
I9
sV\u835c
p573
I31
sV\u5a62
p574
I70
sV\u7ee5
p575
I34
sV\u566a
p576
I168
sV\u4fef
p577
I289
sV\u80f1
p578
I1
sV\u51fb
p579
I316
sV\u747e
p580
I6
sV\u4f84
p581
I40
sV\u6307
p582
I917
sV\u8086
p583
I103
sV\u868a
p584
I58
sV\u5b8c
p585
I39
sV\u7f0f
p586
I2
sV\u9c8e
p587
I2
sV\u7513
p588
I6
sV\u6d98
p589
I23
sV\u5821
p590
I10
sV\u7fa4
p591
I1538
sV\u81b0
p592
I1
sV\u6635
p593
I4
sV\u723d
p594
I226
sV\u60c6
p595
I750
sV\u594b
p596
I103
sV\u9051
p597
I98
sV\u72d2
p598
I14
sV\u9655
p599
I37
sV\u675f
p600
I390
sV\u7d63
p601
I4
sV\u5fe4
p602
I27
sV\u90e6
p603
I6
sV\u896b
p604
I2
sV\u96ea
p605
I4375
sV\u8f6f
p606
I198
sV\u67f4
p607
I296
sV\u5c79
p608
I29
sV\u527d
p609
I8
sV\u6b81
p610
I84
sV\u8a00
p611
I3462
sV\u6d85
p612
I7
sV\u8c04
p613
I21
sV\u6789
p614
I254
sV\u7391
p615
I48
sV\u5112
p616
I539
sV\u8f99
p617
I175
sV\u6d1a
p618
I1
sV\u819d
p619
I136
sV\u201c
p620
I18
sV\u50a7
p621
I1
sV\u752a
p622
I5
sV\u5e38
p623
I2054
sV\u503c
p624
I351
sV\u74bf
p625
I17
sV\u973e
p626
I40
sV\u9ccf
p627
I23
sV\u53d1
p628
I3345
sV\u6fd9
p629
I2
sV\u7be1
p630
I8
sV\u5962
p631
I88
sV\u5366
p632
I41
sV\u77e9
p633
I19
sV\u9668
p634
I39
sV\u6f6e
p635
I731
sV\u83f1
p636
I242
sV\u7d7a
p637
I24
sV\u8386
p638
I1
sV\u7a0b
p639
I690
sV\u7c0f
p640
I9
sV\u9192
p641
I515
sV\u6e98
p642
I10
sV\u821b
p643
I8
sV\u7aa0
p644
I77
sV\u9e23
p645
I2089
sV\u7ca4
p646
I30
sV\u692d
p647
I1
sV\u4fae
p648
I17
sV\u82b0
p649
I88
sV\u5bb6
p650
I5867
sV\u9eb8
p651
I4
sV\u4e43
p652
I826
sV\u63c6
p653
I27
sV\u8749
p654
I888
sV\u5c4f
p655
I613
sV\u7fce
p656
I85
sV\u5653
p657
I1
sV\u9555
p658
I2
sV\u8bd6
p659
I1
sV\u4ed8
p660
I162
sV\u625b
p661
I2
sV\u8dda
p662
I4
sV\u5ae0
p663
I13
sV\u7e63
p664
I1
sV\u5ce4
p665
I135
sV\u93e6
p666
I6
sVZ
p667
I4
sV\u95ea
p668
I80
sV\u9877
p669
I213
sV\u5f79
p670
I353
sV\u7ef8
p671
I28
sV\u517d
p672
I283
sV\ue82a
p673
I3
sV\u6c85
p674
I55
sV\u788d
p675
I153
sV\u5012
p676
I528
sV\u809d
p677
I110
sV\u661e
p678
I1
sV\u9aa1
p679
I12
sV\u7822
p680
I8
sV\u96a9
p681
I8
sV\u742a
p682
I56
sV\u6daf
p683
I785
sV\u67b3
p684
I39
sV2
p685
I10
sV\u79b7
p686
I1
sV\u5f38
p687
I1
sV\u73bb
p688
I4
sV\u6748
p689
I2
sV\u7350
p690
I8
sV\u54d5
p691
I6
sV\u7554
p692
I519
sV\u8f58
p693
I10
sV\u60dd
p694
I6
sV\u6e6e
p695
I24
sV\u82f1
p696
I843
sV\u7a76
p697
I37
sV\u7c7a
p698
I3
sV\u90fd
p699
I1166
sV\u767e
p700
I3119
sV\u8882
p701
I240
sV\u7b0b
p702
I239
sV\u7713
p703
I2
sV\u5594
p704
I34
sV\u4e19
p705
I17
sV\u851f
p706
I19
sV\u7ba0
p707
I9
sV\u682d
p708
I1
sV\u4eae
p709
I82
sV\u6435
p710
I3
sV\u56be
p711
I1
sV\u68c2
p712
I13
sV\u62c6
p713
I102
sV\u7ece
p714
I18
sV\u6957
p715
I4
sV\u4fd8
p716
I11
sV\u7167
p717
I2393
sV\u94ea
p718
I2
sV\u69ec
p719
I1
sV\u9977
p720
I42
sV\u5e79
p721
I6
sV\u957f
p722
I8949
sV\u8c00
p723
I18
sV\u7591
p724
I1401
sV\u7395
p725
I84
sV\u8999
p726
I1
sV\u7f22
p727
I1
sV\u6cab
p728
I79
sV\u732a
p729
I27
sV3
p730
I13
sV\u8732
p731
I1
sV\u7eb7
p732
I1075
sV\u6c40
p733
I339
sV\u6a44
p734
I1
sV\u86c7
p735
I349
sV\u5fcd
p736
I502
sV\u90d3
p737
I1
sV\u67dd
p738
I24
sV\u5f62
p739
I852
sV\u7be5
p740
I11
sV\u9068
p741
I61
sV\u8fed
p742
I14
sV\u696e
p743
I6
sV\u6772
p744
I26
sV\u5ef7
p745
I174
sV\u52ff
p746
I435
sV\u8f82
p747
I42
sV\u7c0b
p748
I17
sV\u821f
p749
I2183
sV\u6f2d
p750
I33
sV\u8eac
p751
I176
sV\u773d
p752
I4
sV\u96bc
p753
I107
sV\u8d41
p754
I20
sV\u65c6
p755
I340
sV\u5c4b
p756
I752
sV\u5053
p757
I3
sV\u8dd6
p758
I9
sV\u645b
p759
I18
sV\u8bda
p760
I681
sV\u8c6b
p761
I136
sVs
p762
I17
sV\u76fc
p763
I70
sV\u6c81
p764
I19
sV\u6089
p765
I72
sV\u9510
p766
I44
sV\u5612
p767
I25
sV\u4f97
p768
I2
sV\u8899
p769
I1
sV\u7e22
p770
I6
sV\u9aa5
p771
I147
sV\u722a
p772
I98
sV\u882e
p773
I1
sV\u5938
p774
I357
sV\u75bb
p775
I1
sV\u903e
p776
I288
sV\u6148
p777
I185
sV\u54d1
p778
I67
sV\u68d9
p779
I1
sV\u66dd
p780
I67
sV\u5e62
p781
I134
sV\u7ae5
p782
I752
sV\u5466
p783
I28
sV\u526a
p784
I308
sV\u7a7a
p785
I7156
sV\u707e
p786
I116
sV\u828a
p787
I98
sV\u7b0f
p788
I46
sV\u8f17
p789
I2
sV\u679c
p790
I496
sV\u5a25
p791
I390
sV\u5029
p792
I72
sV\u71a8
p793
I23
sV\u6e2d
p794
I416
sV\u85b0
p795
I237
sV\u83b4
p796
I1
sV\u8c41
p797
I163
sV\u6ec2
p798
I41
sVI
p799
I7
sV\u5d4b
p800
I39
sV\u62ca
p801
I27
sV\u9e4d
p802
I39
sV\u76d2
p803
I1
sV\u655b
p804
I359
sV\u635f
p805
I181
sV\u80de
p806
I3
sV\u5be4
p807
I44
sV\u94e6
p808
I14
sV\u8d6b
p809
I226
sV\u6fec
p810
I12
sV\u65f0
p811
I27
sV\u63f4
p812
I112
sV\u79f8
p813
I1
sV\u77fc
p814
I2
sV\u6985
p815
I1
sV\u6389
p816
I113
sV\u7d8d
p817
I14
sV\u9c0c
p818
I2
sV\u7791
p819
I18
sV\u9610
p820
I27
sV\u9014
p821
I663
sV\u8b99
p822
I9
sV\u859d
p823
I18
sV\u631e
p824
I10
sV\u7d22
p825
I452
sV\u99a5
p826
I87
sV\u7726
p827
I11
sV\u93a9
p828
I1
sV\u68af
p829
I251
sV\u543c
p830
I81
sV\u6844
p831
I12
sV\u6248
p832
I77
sV\u5dcd
p833
I98
sV\u98cf
p834
I101
sV\u6bd9
p835
I18
sV\u7fe1
p836
I188
sV\u5766
p837
I51
sV\u73e9
p838
I9
sV\u6572
p839
I203
sV\u9bf9
p840
I2
sV\u797a
p841
I3
sV\u95fd
p842
I84
sV\u8786
p843
I1
sV\u818a
p844
I9
sV\u5c8c
p845
I15
sV\u8c17
p846
I92
sV\u649c
p847
I1
sV\u7ea0
p848
I37
sV\u9a23
p849
I14
sV\u6731
p850
I1409
sV\u6135
p851
I1
sV\u80b4
p852
I16
sV\u9ab8
p853
I119
sV\u753d
p854
I1
sV\u8349
p855
I5278
sV\u61ca
p856
I14
sV\u75d2
p857
I14
sV\u9155
p858
I2
sV\u6c57
p859
I285
sV\u665b
p860
I1
sV\u89da
p861
I8
sV\u605f
p862
I1
sV\u9de2
p863
I1
sV\u58e4
p864
I124
sV\u97e6
p865
I119
sV\u6cec
p866
I54
sV\u66f0
p867
I135
sV\u8273
p868
I765
sV\u60f4
p869
I10
sV\u907f
p870
I613
sV\u8f00
p871
I4
sV\u6885
p872
I962
sV\u6289
p873
I13
sV\u8308
p874
I1
sV\u7691
p875
I32
sV\u5412
p876
I13
sV\u5ba3
p877
I428
sV\u55a7
p878
I803
sV\u7626
p879
I285
sV\u7db7
p880
I5
sV\u9e36
p881
I34
sV\u77bb
p882
I332
sV\u553c
p883
I12
sV\u4ec1
p884
I423
sV\u8bc3
p885
I13
sV\u99cf
p886
I1
sV\u7750
p887
I9
sV\u4e56
p888
I178
sV\u7ee1
p889
I138
sV\u78e5
p890
I3
sV\u9964
p891
I6
sV\u72e9
p892
I45
sV\u4feb
p893
I2
sV\u506a
p894
I4
sV\u86f1
p895
I41
sV\u5df7
p896
I398
sV\u9af9
p897
I4
sV\u51ff
p898
I285
sV\u6b03
p899
I23
sV\u8c82
p900
I167
sV\u7f0b
p901
I10
sV\u7313
p902
I1
sV\u659c
p903
I1534
sV\u9b23
p904
I65
sV\u9527
p905
I5
sV\u5229
p906
I646
sV\u6631
p907
I2
sV\u6035
p908
I9
sV\u81b4
p909
I2
sV\u5eb6
p910
I243
sV\u7a39
p911
I5
sV\u58ba
p912
I1
sV\u52be
p913
I8
sV\u8e41
p914
I5
sV\u6cc2
p915
I2
sV\u8845
p916
I13
sV\u60ca
p917
I2399
sV\u9c4d
p918
I6
sV\u594f
p919
I638
sV\u9651
p920
I1
sV\u5353
p921
I119
sV\u74d2
p922
I11
sV\u82de
p923
I81
sV\u5fe0
p924
I356
sV\u7b63
p925
I1
sV\u9ce2
p926
I1
sV\u59e4
p927
I1
sV\u53e8
p928
I105
sV\u8f6b
p929
I3
sV\u90ea
p930
I1
sV\u6dec
p931
I36
sV\u67f0
p932
I13
sV\u7bf8
p933
I24
sV\u547d
p934
I1328
sV\u75fc
p935
I6
sV\u917f
p936
I61
sV\u7181
p937
I1
sV\u9000
p938
I454
sV\u9604
p939
I3
sV\u5f0a
p940
I85
sV\u820c
p941
I183
sV\u8e14
p942
I8
sV\u771a
p943
I2
sV\u5e9f
p944
I385
sV\u70ab
p945
I21
sV\u6f2a
p946
I60
sV\u522c
p947
I12
sV\u952e
p948
I8
sV\u5830
p949
I27
sV\u7cb3
p950
I35
sV\u9b32
p951
I5
sV\u873a
p952
I30
sV\u8d3e
p953
I238
sV\u7040
p954
I1
sV\u94c3
p955
I116
sV\u9ac7
p956
I12
sV\u5dc9
p957
I68
sV\u6850
p958
I575
sV\u6e54
p959
I15
sV\u5156
p960
I6
sV\u575a
p961
I291
sV\u7bdd
p962
I4
sV\u61e1
p963
I1
sV\u67e5
p964
I48
sV\u8c68
p965
I1
sV\u4f6a
p966
I1
sV\u7b72
p967
I9
sV\u8bfd
p968
I2
sV\u4eff
p969
I138
sV\u5080
p970
I2
sV\u7403
p971
I110
sV\u5684
p972
I2
sV\u9986
p973
I729
sV\u5c88
p974
I2
sV\u9f8a
p975
I12
sV\u660f
p976
I984
sV\u6c13
p977
I38
sV\u4e94
p978
I3187
sV\u7498
p979
I7
sV\u7a9c
p980
I81
sV\u9e1f
p981
I3403
sV\u60a0
p982
I1724
sV\u7f1a
p983
I82
sV\u8a27
p984
I1
sV\u6ca8
p985
I4
sV\u732d
p986
I1
sV\u7931
p987
I1
sV\u98b0
p988
I1
sV\u7f35
p989
I5
sV\u9eb4
p990
I4
sV\u6539
p991
I471
sV\u84b8
p992
I176
sV\u5443
p993
I5
sV\u73c2
p994
I114
sV\u7fca
p995
I59
sV\u834d
p996
I1
sV\u65ce
p997
I20
sV\u6bd2
p998
I205
sV\u5adc
p999
I4
sV\u83e2
p1000
I1
sV\u89e6
p1001
I371
sV\u8fea
p1002
I5
sV\u72ec
p1003
I4630
sV\u7ef4
p1004
I272
sV\u7081
p1005
I2
sV\u9100
p1006
I1
sV\u9704
p1007
I709
sV\u5806
p1008
I298
sV\u7c89
p1009
I774
sV\u8910
p1010
I141
sV\u7016
p1011
I1
sV\u9a9d
p1012
I95
sV\u80a1
p1013
I66
sV\u6222
p1014
I66
sV\u63b7
p1015
I276
sV6
p1016
I6
sV\u69bb
p1017
I190
sV\u50c1
p1018
I1
sV\u5cc9
p1019
I2
sV\u87cf
p1020
I17
sV\u4ed5
p1021
I95
sV\u5c5e
p1022
I588
sV\u8160
p1023
I4
sV\u8764
p1024
I2
sV\u51eb
p1025
I220
sV\u5df3
p1026
I49
sV\u6076
p1027
I443
sV\u667a
p1028
I226
sV\u6c7e
p1029
I150
sV\u3001
p1030
I78
sV\u5180
p1031
I112
sV\u7503
p1032
I80
sV\u5784
p1033
I107
sV\u9886
p1034
I312
sV\u670f
p1035
I3
sV\u4f94
p1036
I24
sV\u7b9c
p1037
I36
sV\u6da8
p1038
I217
sV\u5ab2
p1039
I3
sV\u6a3d
p1040
I365
sV\u8bbc
p1041
I85
sV\u9041
p1042
I115
sV\u72c2
p1043
I918
sV\u9645
p1044
I524
sV\u7eca
p1045
I50
sV\u64ce
p1046
I105
sV\u7357
p1047
I2
sV\u795b
p1048
I35
sV\u7f5f
p1049
I30
sV\u9cde
p1050
I520
sV\u6563
p1051
I1903
sV\u6b67
p1052
I39
sV\u79f0
p1053
I887
sV\u8377
p1054
I817
sV\u65f8
p1055
I15
sV\u897b
p1056
I2
sV\u8f7f
p1057
I1
sV\u7f89
p1058
I1
sV\u618d
p1059
I1
sV\u800c
p1060
I688
sV\u6b91
p1061
I3
sV\u6d95
p1062
I248
sV\u8c14
p1063
I16
sV\u7316
p1064
I26
sV\u9799
p1065
I1
sV\u5a9b
p1066
I15
sV\u751a
p1067
I416
sV\u7f1e
p1068
I1
sV\u8fa9
p1069
I49
sV\u6d2a
p1070
I258
sV\u502c
p1071
I3
sV\u972e
p1072
I4
sV\u7eb3
p1073
I153
sV\u8336
p1074
I397
sV\u853a
p1075
I6
sV\u6cbf
p1076
I152
sV\u55c5
p1077
I26
sV\u5fc9
p1078
I17
sV\u82cb
p1079
I6
sV\u604c
p1080
I1
sV\u84cf
p1081
I1
sV\u6a50
p1082
I47
sV\u6c54
p1083
I1
sV\u5356
p1084
I232
sV\u63e1
p1085
I197
sV\u65e5
p1086
I14584
sV\u6fe9
p1087
I57
sV\u91ed
p1088
I30
sV\u7972
p1089
I23
sV\u6376
p1090
I17
sV\u87f9
p1091
I37
sV\u6f7e
p1092
I11
sV\u5484
p1093
I55
sV\u620b
p1094
I4
sV\u640f
p1095
I50
sV\u9017
p1096
I58
sV\u789c
p1097
I1
sV\u62a0
p1098
I2
sV\u64a4
p1099
I27
sV\u90ac
p1100
I2
sV\u7b31
p1101
I4
sV\u9ab0
p1102
I8
sV\u59b2
p1103
I6
sV\u693d
p1104
I25
sV\u71c2
p1105
I2
sV\u7bc6
p1106
I88
sV\u67ce
p1107
I1
sV\u93d6
p1108
I4
sV\u6867
p1109
I71
sV\u8be6
p1110
I21
sV\u8dea
p1111
I56
sV\u516d
p1112
I1243
sV\u70ec
p1113
I110
sV\u5b71
p1114
I42
sV\u9e73
p1115
I27
sVw
p1116
I23
sV\u68fc
p1117
I13
sV\u7281
p1118
I50
sV\u9504
p1119
I149
sV\u5a06
p1120
I18
sV\u5c0a
p1121
I917
sV\u608d
p1122
I16
sV\u5197
p1123
I25
sV\u9699
p1124
I125
sV\u5b9b
p1125
I394
sV\u741a
p1126
I15
sV\u989d
p1127
I101
sV\u82a1
p1128
I18
sV\u8ea9
p1129
I6
sV\u73ab
p1130
I22
sV\u962e
p1131
I177
sV\u5d34
p1132
I1
sV\u8236
p1133
I18
sV\u6dbf
p1134
I14
sV\u5ec9
p1135
I92
sV\u614c
p1136
I4
sV\u85cf
p1137
I892
sV\u8fd3
p1138
I10
sV\u6d54
p1139
I142
sV\u5256
p1140
I64
sV\u9758
p1141
I1
sV\u78dd
p1142
I1
sV\u5e5e
p1143
I4
sV\u8360
p1144
I27
sV\u8564
p1145
I95
sV\u6ee9
p1146
I299
sV\u8f68
p1147
I42
sV\u53eb
p1148
I270
sV\u90ed
p1149
I575
sV\u5ff3
p1150
I1
sV\u6276
p1151
I489
sV\u86f9
p1152
I1
sV\u6e7e
p1153
I134
sV\u9082
p1154
I29
sV\u5584
p1155
I410
sV\u9a86
p1156
I30
sV\u5f88
p1157
I8
sV\u9c8a
p1158
I10
sV\u6f13
p1159
I36
sV\u8892
p1160
I15
sV\u799c
p1161
I2
sV\u63a0
p1162
I49
sV\u65a4
p1163
I57
sV\u8927
p1164
I8
sV\u6fa8
p1165
I6
sV\u7c35
p1166
I1
sV\u683d
p1167
I387
sV\u70c2
p1168
I281
sV\u5947
p1169
I715
sV\u9e49
p1170
I189
sV\u7cca
p1171
I20
sV\u804d
p1172
I1
sV\u4f53
p1173
I362
sV\u68d2
p1174
I5
sV\u8c55
p1175
I21
sV\u57d8
p1176
I2
sV\u7b5b
p1177
I7
sV\u59dc
p1178
I47
sV\u4fe8
p1179
I155
sV\u71ec
p1180
I1
sV\u8177
p1181
I3
sV\u5d06
p1182
I59
sV\u678d
p1183
I3
sV\u8c10
p1184
I116
sV\u5697
p1185
I3
sV\u5c9b
p1186
I502
sV\u5a9f
p1187
I1
sV\u4ea7
p1188
I98
sV\u562c
p1189
I1
sV\u72af
p1190
I153
sV\u5a34
p1191
I2
sV\u6cbb
p1192
I119
sV\u6abf
p1193
I3
sV\u893e
p1194
I2
sV\u7440
p1195
I11
sV\u90c3
p1196
I1
sV\u59c9
p1197
I1
sV\u664c
p1198
I6
sV\u82cf
p1199
I481
sV\u6c50
p1200
I2
sV\u88d3
p1201
I2
sV\u5556
p1202
I47
sV\u9058
p1203
I21
sV\u535a
p1204
I176
sV\u9e5c
p1205
I28
sV\u8868
p1206
I489
sV\u97ed
p1207
I9
sV\u716e
p1208
I145
sV\u58f3
p1209
I39
sV\u7f72
p1210
I242
sV\u637a
p1211
I4
sV\u8ffd
p1212
I541
sV\u5480
p1213
I12
sV\u620f
p1214
I397
sV\u9617
p1215
I74
sV\u5f1d
p1216
I4
sV\u62a4
p1217
I292
sV\u8e27
p1218
I1
sV\u68a8
p1219
I323
sV\u772d
p1220
I1
sV\u9cb0
p1221
I1
sV\u9ab4
p1222
I1
sV\u80b8
p1223
I15
sV\u5043
p1224
I249
sV\u7bca
p1225
I1
sV\u8d51
p1226
I7
sV\u7657
p1227
I1
sV\u93da
p1228
I9
sV\u7a5f
p1229
I11
sV\u6063
p1230
I239
sV\u87e2
p1231
I4
sV\u76ec
p1232
I2
sV\u60f8
p1233
I15
sV\u4f7d
p1234
I2
sV\u7481
p1235
I15
sV\u9500
p1236
I822
sV\u5c06
p1237
I4833
sV\u668d
p1238
I11
sV\u9099
p1239
I68
sV\u5d9b
p1240
I2
sV\u721a
p1241
I8
sV\u9e9d
p1242
I131
sV\u82a5
p1243
I17
sV\u4fa7
p1244
I406
sV\u75ab
p1245
I9
sV\u6a2a
p1246
I1378
sV\u73af
p1247
I455
sV\u902e
p1248
I37
sV\u79b3
p1249
I11
sV\u9e32
p1250
I19
sV\u5b34
p1251
I63
sV\u67b7
p1252
I5
sV\u4f3c
p1253
I3678
sV\u6bbf
p1254
I1401
sV\u54c1
p1255
I170
sV\u7948
p1256
I90
sV\u85cb
p1257
I5
sV\u674c
p1258
I5
sV\u6d50
p1259
I48
sV\u6b54
p1260
I8
sV\u9158
p1261
I1
sV\u7edd
p1262
I1864
sV\u585e
p1263
I1340
sV\u62e5
p1264
I617
sV\u8364
p1265
I24
sV\u55eb
p1266
I3
sV\u96ed
p1267
I2
sV\u53ef
p1268
I4582
sV\u9af5
p1269
I3
sV\u5384
p1270
I44
sV\u7f07
p1271
I29
sV\u9a8a
p1272
I172
sV\u5019
p1273
I519
sV\u5e1d
p1274
I1811
sV\u7f9c
p1275
I2
sV\u9b1f
p1276
I206
sV\u8f27
p1277
I36
sV\u97ac
p1278
I19
sV\u5143
p1279
I1072
sV\u76c2
p1280
I50
sV\u7757
p1281
I2
sV\u51d8
p1282
I2
sV\u98de
p1283
I5425
sV\u956b
p1284
I36
sV\u566d
p1285
I7
sV\u77ec
p1286
I2
sV\u5c71
p1287
I15579
sV\u5a75
p1288
I163
sV\u7781
p1289
I1
sV\u9600
p1290
I6
sV\u840c
p1291
I59
sV\u6995
p1292
I6
sV\u8814
p1293
I1
sV\u711a
p1294
I427
sV\u589f
p1295
I124
sV\u7b1e
p1296
I9
sV\u6f26
p1297
I5
sV\u8ba9
p1298
I233
sV\u542c
p1299
I1938
sV\u70af
p1300
I34
sV\u7ab3
p1301
I2
sV\u64b7
p1302
I25
sV\u6ebb
p1303
I1
sV\u80cf
p1304
I1
sV\u6854
p1305
I19
sV\u73d9
p1306
I2
sV\u515a
p1307
I67
sVd
p1308
I49
sV\u95ed
p1309
I829
sV\u736e
p1310
I7
sV\u83f9
p1311
I12
sV\u4efb
p1312
I963
sV\u8dfd
p1313
I2
sV\u5084
p1314
I1
sV\u7c07
p1315
I211
sV\u9f86
p1316
I6
sV\u600f
p1317
I21
sV\u838e
p1318
I242
sV\u5319
p1319
I19
sV\u7298
p1320
I1
sV\u7c9c
p1321
I3
sV\u8223
p1322
I16
sV\u8c27
p1323
I29
sV\u53ae
p1324
I3
sV\u7f31
p1325
I12
sV\u9eb0
p1326
I3
sV\u6339
p1327
I89
sV\u82b8
p1328
I99
sV\u6d3d
p1329
I145
sV\u5243
p1330
I37
sV\u9145
p1331
I3
sV\u9b49
p1332
I25
sV\u63ce
p1333
I4
sV\u8955
p1334
I2
sV\u7457
p1335
I6
sV\u52d8
p1336
I18
sV\u6263
p1337
I154
sV\u6c67
p1338
I6
sV\u8fe6
p1339
I17
sV\u556d
p1340
I148
sV\u5f71
p1341
I2502
sV\u7ef0
p1342
I33
sV\u9a73
p1343
I29
sV\u78f4
p1344
I109
sV\u8e7b
p1345
I4
sV\u6cfc
p1346
I39
sV\u887f
p1347
I41
sV\u9700
p1348
I10
sV\u7085
p1349
I6
sV\u9104
p1350
I1
sV\u5e06
p1351
I1021
sV\u850c
p1352
I6
sV\u7616
p1353
I1
sV\u9299
p1354
I1
sV\u701a
p1355
I32
sV\u86a1
p1356
I1
sV\u6422
p1357
I15
sV\u80a5
p1358
I285
sV\u682a
p1359
I277
sV\u71af
p1360
I1
sV\u5f30
p1361
I5
sV\u5934
p1362
I3972
sV\u8a3e
p1363
I8
sV\u7740
p1364
I53
sV\u9dc7
p1365
I10
sV\u5ac9
p1366
I21
sV\u7b48
p1367
I1
sV\u87cb
p1368
I64
sV\u654c
p1369
I319
sV\u4ed1
p1370
I128
sV\u6954
p1371
I1
sV\u72d9
p1372
I19
sV\u505a
p1373
I2
sV\u8760
p1374
I19
sV\u4e66
p1375
I4047
sV\u94ed
p1376
I135
sV\u51ef
p1377
I73
sV\u6676
p1378
I110
sV\u82f9
p1379
I11
sV\u607a
p1380
I14
sV\u7303
p1381
I4
sV\u3005
p1382
I42
sV\u5b88
p1383
I1043
sV\u670b
p1384
I222
sV\u988a
p1385
I50
sV\u610f
p1386
I3186
sV\u5219
p1387
I285
sV\u9f1b
p1388
I1
sV\u5c1d
p1389
I564
sV\u8d27
p1390
I51
sV\u742d
p1391
I1
sV\u83b8
p1392
I8
sV\u8dbc
p1393
I3
sV\u5343
p1394
I5926
sV\u5d47
p1395
I62
sV\u7ec6
p1396
I1193
sV\u78ca
p1397
I62
sV\u8e51
p1398
I136
sV\u53d8
p1399
I1079
sV\u7f5b
p1400
I6
sV\u795f
p1401
I8
sV\u6363
p1402
I145
sV\u976b
p1403
I5
sV\u7ff0
p1404
I353
sV\u8f7b
p1405
I2692
sV\u6dfc
p1406
I85
sV\u897f
p1407
I4840
sV\u7981
p1408
I744
sV\u5106
p1409
I4
sV\u6b8d
p1410
I2
sV\u8010
p1411
I62
sV\u6795
p1412
I1010
sV\uff1a
p1413
I81
sV\u939d
p1414
I1
sV\u6b22
p1415
I1476
sV\u672a
p1416
I6793
sV\u7eaf
p1417
I47
sV\u5030
p1418
I1
sV\u5634
p1419
I11
sV\u8936
p1420
I2
sV\u853e
p1421
I1
sV\u7840
p1422
I20
sV\u9cc3
p1423
I10
sV\u5fc5
p1424
I968
sV\u7e44
p1425
I9
sV\u55c9
p1426
I2
sV\u88cb
p1427
I3
sV\u8ecf
p1428
I3
sV\u6050
p1429
I872
sV\u84d3
p1430
I1
sV\u6654
p1431
I30
sV\u5956
p1432
I38
sV\u65e9
p1433
I1927
sV\u58eb
p1434
I1520
sV\u7d6e
p1435
I236
sV\u91f1
p1436
I2
sV\u54f3
p1437
I9
sV\u97f5
p1438
I509
sV\u8df9
p1439
I12
sV\u6f7a
p1440
I336
sV\u83fd
p1441
I15
sV\u5880
p1442
I245
sV\u7c03
p1443
I1
sV\u5e84
p1444
I216
sV\u7207
p1445
I48
sV\u9186
p1446
I61
sV\u5488
p1447
I1
sV\u680b
p1448
I167
sV\u6413
p1449
I10
sV\u7c98
p1450
I63
sV\u531d
p1451
I127
sV\u961f
p1452
I63
sV\u68a0
p1453
I3
sV\u8c23
p1454
I161
sV\u4f25
p1455
I13
sV\u7b2d
p1456
I5
sV\u5dae
p1457
I33
sV\u7131
p1458
I2
sV\u7735
p1459
I1
sV\u6d39
p1460
I1
sV\u633d
p1461
I82
sV\u82bc
p1462
I4
sV\u9941
p1463
I2
sV\u5c43
p1464
I6
sV\u9549
p1465
I1
sV\u4e4f
p1466
I126
sV\u8151
p1467
I23
sV\u63d2
p1468
I202
sV\u7a57
p1469
I79
sV\u99d6
p1470
I2
sV\u8be2
p1471
I30
sV\u4ee4
p1472
I1467
sV\u6267
p1473
I279
sV\u87ea
p1474
I20
sV\u9e6f
p1475
I26
sV\u5171
p1476
I2482
sV\u76f4
p1477
I1534
sV\u6cf8
p1478
I31
sV\u62fc
p1479
I1
sV\u867f
p1480
I21
sV\u9508
p1481
I1
sV\u8110
p1482
I21
sV\u5b97
p1483
I527
sV\u7816
p1484
I38
sV\u9c99
p1485
I58
sV\u519b
p1486
I1424
sV\u6026
p1487
I2
sV\u79ab
p1488
I1
sV\u7faf
p1489
I35
sV\u6bb7
p1490
I630
sV\u67bf
p1491
I37
sV\u58c1
p1492
I904
sV\u7940
p1493
I204
sV\u9dc3
p1494
I24
sV\u7f44
p1495
I35
sV\u54c9
p1496
I569
sV\u89cb
p1497
I8
sV\u6b4c
p1498
I4011
sV\u85d3
p1499
I305
sV\u935c
p1500
I2
sV\u545e
p1501
I1
sV\u6ee5
p1502
I76
sV\u8568
p1503
I61
sV\u9aed
p1504
I116
sV\u7272
p1505
I57
sV\u6876
p1506
I2
sV\u82fd
p1507
I2
sV\u7d03
p1508
I2
sV\u9a82
p1509
I17
sV\u5f84
p1510
I1204
sV\u5588
p1511
I17
sV\u6f0f
p1512
I754
sV\u8292
p1513
I131
sV\u521d
p1514
I3270
sV\u8d23
p1515
I68
sV\u4e25
p1516
I529
sV\u8327
p1517
I64
sV\u7a2d
p1518
I1
sV\u52b2
p1519
I130
sV\u7635
p1520
I25
sV\u97b4
p1521
I6
sV\u4eba
p1522
I20473
sV\u623d
p1523
I1
sV\u83bc
p1524
I50
sV\u5d43
p1525
I1
sV\u9e45
p1526
I108
sV\u5347
p1527
I608
sV\u76ca
p1528
I405
sV\u4f4f
p1529
I1144
sVQ
p1530
I8
sV\u62d2
p1531
I40
sV\u98d6
p1532
I140
sV\u5dd8
p1533
I78
sV\u775f
p1534
I6
sV\u6d63
p1535
I138
sV\u6367
p1536
I282
sV\u996b
p1537
I23
sV\u9f6f
p1538
I1
sV\u9573
p1539
I45
sV\u817b
p1540
I137
sV\u9a00
p1541
I3
sV\u5306
p1542
I69
sV\u9608
p1543
I6
sV\u4f0e
p1544
I44
sV\u8210
p1545
I16
sVX
p1546
I6
sV\u9f99
p1547
I3756
sV\u529b
p1548
I1271
sV\u8ba1
p1549
I816
sV\u9f2e
p1550
I1
sV\u5230
p1551
I3464
sV\u5434
p1552
I1338
sV\u4e38
p1553
I107
sV\u62bb
p1554
I1
sV\u8d3a
p1555
I277
sV\u873e
p1556
I1
sV\u7a40
p1557
I9
sV\u5dc5
p1558
I98
sV\u90c7
p1559
I5
sV\u6250
p1560
I1
sV\u7fd9
p1561
I5
sV\u9e58
p1562
I60
sV\u71dd
p1563
I1
sV\u575e
p1564
I122
sV\u6be1
p1565
I82
sV\u67e9
p1566
I3
sV\u5aeb
p1567
I10
sV\u7f6e
p1568
I383
sV\u95f5
p1569
I17
sV\u8ff9
p1570
I1339
sV\u677e
p1571
I3270
sV\u6c0f
p1572
I361
sV\u8f8e
p1573
I7
sV\u6613
p1574
I1335
sV\u709c
p1575
I7
sV\u6aa0
p1576
I14
sV\u8e23
p1577
I12
sV\u6ca4
p1578
I35
sV\u66a8
p1579
I10
sV\u5fae
p1580
I2631
sV\u7331
p1581
I46
sV\u51b2
p1582
I491
sV\u7535
p1583
I263
sV\u9b41
p1584
I25
sV\u5047
p1585
I316
sV\u75ca
p1586
I20
sV\u6fce
p1587
I1
sV\u8351
p1588
I31
sV\u61d2
p1589
I444
sV\u7857
p1590
I10
sV\u725b
p1591
I768
sV\u50dc
p1592
I2
sV\u745f
p1593
I451
sV\u6067
p1594
I7
sV\u596d
p1595
I4
sV\u78ec
p1596
I397
sV\u5371
p1597
I818
sV\u72f0
p1598
I2
sV\u74f4
p1599
I10
sV\u8877
p1600
I78
sV\u7a81
p1601
I150
sV\u5802
p1602
I1827
sV\u5206
p1603
I3613
sV\u9708
p1604
I17
sV\u540a
p1605
I242
sV\u4e0e
p1606
I5141
sV\u6291
p1607
I71
sV\u6495
p1608
I1
sV\u559f
p1609
I7
sV\u4fa3
p1610
I510
sV\u86a9
p1611
I33
sV\u7bab
p1612
I413
sV\u642a
p1613
I4
sV\u592c
p1614
I3
sV\u7daf
p1615
I1
sV\u9e2e
p1616
I28
sV\u77b3
p1617
I44
sV\u69b7
p1618
I6
sV\u4f38
p1619
I106
sV\u65bf
p1620
I7
sV\u5ac1
p1621
I253
sV\u91c7
p1622
I1001
sV\u8bcb
p1623
I7
sV\u8dcf
p1624
I7
sV\u6350
p1625
I131
sV\u6554
p1626
I1
sV\u7ed9
p1627
I74
sV\u70dd
p1628
I43
sV\u565e
p1629
I9
sV\u6ce5
p1630
I999
sV\u8d64
p1631
I724
sV\u66e9
p1632
I41
sV\u57f3
p1633
I1
sV\u80fd
p1634
I3657
sV\u7f03
p1635
I26
sV\u9882
p1636
I166
sV\u948a
p1637
I1
sV\u6d0f
p1638
I7
sV\u9917
p1639
I4
sV\u5e19
p1640
I67
sV\u8f23
p1641
I1
sV\u6da4
p1642
I109
sV\u67a8
p1643
I10
sV\u782d
p1644
I3
sV\u7231
p1645
I1888
sV\u50b2
p1646
I178
sV\u7435
p1647
I104
sVJ
p1648
I9
sV\u9649
p1649
I12
sV\u884d
p1650
I45
sV\u8251
p1651
I9
sV\u7957
p1652
I63
sV\u5fd8
p1653
I1278
sV\u6167
p1654
I52
sV\u82e6
p1655
I2178
sV\u84ea
p1656
I3
sV\u79ec
p1657
I10
sV\u73f0
p1658
I69
sV\u9773
p1659
I6
sV\u5475
p1660
I50
sV\u75f4
p1661
I150
sV\u837b
p1662
I102
sV\u5f02
p1663
I1295
sV\u9a04
p1664
I18
sV\u6f8d
p1665
I3
sV\u8e0c
p1666
I57
sV\u6591
p1667
I317
sV\u8410
p1668
I2
sV\u8214
p1669
I1
sV\u5e97
p1670
I115
sV\u7d16
p1671
I2
sV\u9999
p1672
I4323
sV\u549b
p1673
I11
sV\u529f
p1674
I1544
sV\u8ba5
p1675
I35
sV\u632a
p1676
I6
sV\u992e
p1677
I1
sV\u5430
p1678
I1
sV\u70b3
p1679
I37
sV\u9732
p1680
I2901
sV\u6eb7
p1681
I9
sV\u8d36
p1682
I48
sV\u813e
p1683
I11
sV\u7c40
p1684
I5
sV\u5bc5
p1685
I45
sV\u96c7
p1686
I10
sV\u51c9
p1687
I1641
sV\u6450
p1688
I48
sV\u5b5a
p1689
I15
sV\u6de1
p1690
I323
sVh
p1691
I30
sV\u95f1
p1692
I237
sV\u4ef7
p1693
I231
sV\u9f82
p1694
I10
sV\u7607
p1695
I2
sV\u5088
p1696
I1
sV\u6c0b
p1697
I2
sVC
p1698
I9
sV\u6a0f
p1699
I1
sV\u5919
p1700
I128
sV\u8627
p1701
I16
sV\u7f2d
p1702
I128
sV\u7531
p1703
I1183
sV\u57b2
p1704
I3
sV\u7335
p1705
I2
sV\u6939
p1706
I14
sV\u673d
p1707
I208
sV\u9b45
p1708
I86
sV\u5647
p1709
I3
sV\u75c6
p1710
I1
sV\u9149
p1711
I16
sV\u73ca
p1712
I208
sV\u69ce
p1713
I184
sV\u9dd6
p1714
I1
sV\u745b
p1715
I5
sV\u725f
p1716
I21
sV\u8fe2
p1717
I668
sV\u5f6d
p1718
I186
sV\u9a6f
p1719
I112
sV\u5375
p1720
I36
sV\u72f4
p1721
I8
sV\u66fc
p1722
I38
sV\u5e02
p1723
I615
sV\u7a85
p1724
I79
sV\u7089
p1725
I697
sV\u520a
p1726
I37
sV\u6491
p1727
I55
sV\u6295
p1728
I687
sV\u8314
p1729
I29
sV\u5f97
p1730
I7075
sV\u9899
p1731
I40
sV\u7a1a
p1732
I207
sV\u539f
p1733
I891
sV\u6426
p1734
I18
sV\u80a9
p1735
I170
sV\u622a
p1736
I159
sV\u71b3
p1737
I71
sV\u9632
p1738
I325
sV\u8c36
p1739
I17
sV\u63bf
p1740
I1
sV\u99c3
p1741
I1
sV\u8dcb
p1742
I28
sV\u4ecd
p1743
I895
sV\u8bcf
p1744
I568
sV\u9958
p1745
I4
sV\u5a5a
p1746
I81
sV\u76dd
p1747
I1
sV\u6ce1
p1748
I11
sV\u8d60
p1749
I651
sV\u60e9
p1750
I31
sV\u5deb
p1751
I435
sV\u786e
p1752
I16
sV\u6c76
p1753
I31
sV\u88f9
p1754
I95
sV\u9e82
p1755
I1
sV\u5b84
p1756
I1
sV\u7707
p1757
I181
sV\u5188
p1758
I173
sV\u6d0b
p1759
I65
sV\u888e
p1760
I1
sV\u9f17
p1761
I4
sV\u5819
p1762
I10
sV\u7998
p1763
I1
sV\u6da0
p1764
I1
sV\u8923
p1765
I1
sV\u61a8
p1766
I9
sV\u7235
p1767
I111
sV\u6839
p1768
I958
sV\u7ec2
p1769
I89
sV\u5747
p1770
I188
sV\u8451
p1771
I18
sV\u7f57
p1772
I1657
sV\u9cd6
p1773
I48
sV\u755b
p1774
I6
sV\u6963
p1775
I15
sV\u84e6
p1776
I13
sV\u5471
p1777
I4
sV\u75f0
p1778
I5
sV\u7f81
p1779
I491
sV\u9e00
p1780
I5
sV\u7985
p1781
I1061
sV\u5706
p1782
I632
sV\u7389
p1783
I5980
sV\u8c0c
p1784
I6
sV\u6791
p1785
I2
sV\u8014
p1786
I1
sV\u5c97
p1787
I5
sV\u7f16
p1788
I176
sV\u6726
p1789
I75
sV\u83a9
p1790
I3
sV\u7eab
p1791
I18
sV\u8f36
p1792
I17
sV\u8035
p1793
I1
sV\u94c7
p1794
I1
sV\u53c9
p1795
I31
sV\u7248
p1796
I57
sV\u82d3
p1797
I28
sV\u5f56
p1798
I2
sV\u7bd9
p1799
I38
sV\u595a
p1800
I64
sV\u535e
p1801
I33
sV\u6fe1
p1802
I87
sV\u8e60
p1803
I1
sV\u69e5
p1804
I1
sV\u63e9
p1805
I5
sV\u8268
p1806
I6
sV\u7b6e
p1807
I22
sV\u7572
p1808
I3
sV\u8bf9
p1809
I5
sV\u5e80
p1810
I3
sV\u9d82
p1811
I6
sV\u5884
p1812
I2
sV\u7407
p1813
I2
sV\u5288
p1814
I42
sV\u680f
p1815
I293
sV\u7a98
p1816
I21
sV\u551d
p1817
I2
sV\u749c
p1818
I31
sV\u901f
p1819
I187
sV\u6ea0
p1820
I5
sV\u8427
p1821
I1825
sV\u62a8
p1822
I7
sV\u7d2d
p1823
I1
sV\u96b0
p1824
I34
sV\u90b4
p1825
I12
sV\u6b39
p1826
I353
sV\u9f41
p1827
I1
sV\u4e4b
p1828
I2883
sV\u8d4d
p1829
I27
sV\u65d2
p1830
I105
sV\u8155
p1831
I77
sV\u54dc
p1832
I1
sV\u6467
p1833
I447
sV\u9e6b
p1834
I17
sV\u81ea
p1835
I8761
sV\u5771
p1836
I9
sV\u5175
p1837
I1270
sV\u867b
p1838
I7
sV\u807f
p1839
I30
sV\u7e81
p1840
I15
sV\u7289
p1841
I1
sV\u6c8d
p1842
I13
sV\u6691
p1843
I434
sV\u8114
p1844
I13
sV\u579b
p1845
I2
sV\u781a
p1846
I145
sV\u949d
p1847
I56
sV\u721e
p1848
I4
sV\u8ea1
p1849
I1
sV\u82a9
p1850
I2
sV\u602a
p1851
I532
sV\u5730
p1852
I4907
sV\u73b3
p1853
I97
sV\u6db7
p1854
I2
sV\u67bb
p1855
I19
sV\u58c5
p1856
I18
sV\u95c7
p1857
I31
sV\u52c9
p1858
I110
sV\u89cf
p1859
I22
sV\u6750
p1860
I265
sV\u5e56
p1861
I2
sV\u955c
p1862
I1397
sV\u525e
p1863
I2
sV\u6ee1
p1864
I4209
sV\u62e9
p1865
I99
sV\u5feb
p1866
I103
sV\u7a6e
p1867
I1
sV\u53f3
p1868
I367
sV\u5f80
p1869
I1650
sV\u7b03
p1870
I6
sV\u9c82
p1871
I24
sV\u5984
p1872
I93
sV\u9686
p1873
I90
sV\u5a19
p1874
I1
sV\u7b98
p1875
I2
sV\u541d
p1876
I42
sV\u69a4
p1877
I1
sV\u63a8
p1878
I477
sV\u9dac
p1879
I13
sV\u5aae
p1880
I1
sV\u7631
p1881
I1
sV\u7035
p1882
I2
sV\u91b4
p1883
I87
sV\u4eb6
p1884
I1
sV\u8bb8
p1885
I982
sV\u9e41
p1886
I2
sV\u76c6
p1887
I108
sV\u8651
p1888
I340
sV\u64d2
p1889
I70
sVU
p1890
I7
sV\u9ed6
p1891
I1
sV\u5bd8
p1892
I4
sV\u775b
p1893
I31
sV\u98da
p1894
I7
sV\u55dc
p1895
I63
sV\u6b63
p1896
I2295
sV\u86e6
p1897
I2
sV\u80ea
p1898
I4
sV\u996f
p1899
I133
sV\u5671
p1900
I1
sV\u77f0
p1901
I23
sV\u8d77
p1902
I3233
sV\u6bf8
p1903
I7
sV\u817f
p1904
I2
sV\u6302
p1905
I703
sV\u6906
p1906
I1
sV\u968f
p1907
I3063
sV\u5f95
p1908
I2
sV\u6297
p1909
I55
sV\u6e9f
p1910
I326
sV\u9020
p1911
I438
sV\u9624
p1912
I5
sV\u6e34
p1913
I190
sV\u7a3c
p1914
I127
sV\u67c5
p1915
I1
sV\u8946
p1916
I10
sV\u73cd
p1917
I417
sV\u524c
p1918
I28
sV\u79d1
p1919
I209
sV\u7fd5
p1920
I40
sV\u5e54
p1921
I66
sV\u82d7
p1922
I255
sV\u88db
p1923
I83
sV\u6d5e
p1924
I1
sV\u51e1
p1925
I313
sV\u9ae7
p1926
I2
sV\u5de9
p1927
I28
sV\u60eb
p1928
I12
sV\u7f6a
p1929
I190
sV\u8870
p1930
I1158
sV\u6cf3
p1931
I29
sV\u8e74
p1932
I29
sV\u72f7
p1933
I11
sV\u5176
p1934
I1780
sV\u78fb
p1935
I37
sV\u9a7c
p1936
I59
sV\u7eff
p1937
I2730
sV\u5d7e
p1938
I1
sV\u8101
p1939
I41
sV\u6684
p1940
I127
sV\u6c88
p1941
I937
sV\u560f
p1942
I13
sV\u5ca8
p1943
I4
sV\u8c33
p1944
I1
sV\u9e3f
p1945
I956
sV\u80c0
p1946
I2
sV\u86c4
p1947
I21
sV\u4fca
p1948
I131
sV\u764f
p1949
I1
sV\u98d0
p1950
I48
sV\u5bd2
p1951
I6095
sV\u9ed4
p1952
I82
sV\u8559
p1953
I299
sV\u64d8
p1954
I71
sV\u6adc
p1955
I16
sV\u4e5f
p1956
I596
sV\u9161
p1957
I31
sV\u9765
p1958
I47
sV\u9d69
p1959
I47
sV\u636d
p1960
I2
sV\u8bf2
p1961
I12
sV\u7579
p1962
I20
sV\u97fa
p1963
I1
sV\u9dfe
p1964
I1
sV\u918b
p1965
I6
sV\u6e0a
p1966
I99
sV\u5e95
p1967
I685
sV\u699b
p1968
I124
sV\u9120
p1969
I23
sV\u75a3
p1970
I7
sV\u9724
p1971
I12
sV\u7ba7
p1972
I160
sV\u82ad
p1973
I70
sV\u6930
p1974
I14
sV\u6f34
p1975
I5
sV\u7538
p1976
I124
sV\u59bb
p1977
I375
sV\u7b3c
p1978
I724
sV\u6cc9
p1979
I2616
sV\u8e4a
p1980
I120
sV\u78d1
p1981
I4
sV\u7ed5
p1982
I1526
sV\u665a
p1983
I2892
sV\u8fdf
p1984
I1649
sV\u6c5e
p1985
I45
sV\u7262
p1986
I192
sV\u67ef
p1987
I174
sV\u8970
p1988
I1
sV\u6df3
p1989
I87
sV\u8f74
p1990
I138
sV\u5076
p1991
I721
sV\u79fb
p1992
I1532
sV\u7fff
p1993
I3
sV\u8001
p1994
I4105
sV\u6180
p1995
I35
sV\u8605
p1996
I30
sV\u6784
p1997
I141
sV\u6d88
p1998
I797
sV\u510b
p1999
I10
sV\u7f94
p2000
I26
sV\u8096
p2001
I18
sV\u7021
p2002
I1
sV\u51a0
p2003
I883
sV\u7625
p2004
I6
sV\u57a4
p2005
I6
sV\u98a6
p2006
I71
sV\u7c29
p2007
I1
sV\u5da8
p2008
I1
sV\u64ae
p2009
I12
sV\u8d33
p2010
I35
sV\u5439
p2011
I2351
sV\u7cbe
p2012
I947
sV\u81c0
p2013
I2
sV\u6b47
p2014
I547
sV\u4eca
p2015
I5820
sV\u7d53
p2016
I1
sV\u71e0
p2017
I27
sV\u96fa
p2018
I1
sV\u5bfc
p2019
I57
sV\u8683
p2020
I18
sV\u6d0a
p2021
I5
sV\u518d
p2022
I760
sV\u300c
p2023
I1
sV\u948f
p2024
I31
sV\u9e93
p2025
I38
sV\u7912
p2026
I1
sV\u8618
p2027
I2
sV\u6c9f
p2028
I302
sV\u4f1e
p2029
I13
sV\u78a7
p2030
I2708
sV\u9e28
p2031
I4
sV\u4eb3
p2032
I2
sV\u8db5
p2033
I2
sV\u6c34
p2034
I10799
sV\u5cbf
p2035
I5
sV\u63c1
p2036
I1
sV\u65c5
p2037
I732
sV\u6fc9
p2038
I3
sV\u4e48
p2039
I30
sV\u8d4a
p2040
I264
sV\u7bd1
p2041
I6
sV\u5a50
p2042
I1
sV\u6f5e
p2043
I6
sV\u55e5
p2044
I13
sV\u98e7
p2045
I26
sV\u7b66
p2046
I5
sV\u7d6a
p2047
I13
sVl
p2048
I10
sV\u987c
p2049
I13
sV\u8301
p2050
I5
sV\u6280
p2051
I14
sV\u6484
p2052
I7
sV\u540f
p2053
I880
sV\u5e13
p2054
I1
sV\u7c94
p2055
I3
sV\u8f9e
p2056
I1542
sV\u52a0
p2057
I272
sV\u91a2
p2058
I11
sV\u7525
p2059
I31
sV\u54a4
p2060
I20
sV\u7f29
p2061
I91
sV\u5ea8
p2062
I1
sV\u822b
p2063
I80
sV\u842f
p2064
I1
sV\u5739
p2065
I6
sV\u7fbe
p2066
I3
sV\u6643
p2067
I31
sV\u84c4
p2068
I57
sV\u57ce
p2069
I5337
sV\u9ad0
p2070
I2
sV\u59d2
p2071
I9
sV\u8759
p2072
I20
sV\u72e0
p2073
I3
sV\u5663
p2074
I1
sV\u74e4
p2075
I2
sV\u7ee8
p2076
I15
sV\u7779
p2077
I228
sV\u95fa
p2078
I350
sV\u8783
p2079
I1
sV\u4e89
p2080
I1429
sV\u508d
p2081
I1036
sV\u8718
p2082
I29
sV\u6b9b
p2083
I5
sV\u6d9f
p2084
I99
sV\u4e1e
p2085
I208
sV\u5022
p2086
I1
sV\u9524
p2087
I23
sV\u79a7
p2088
I2
sV\u5c2a
p2089
I2
sV\u612c
p2090
I11
sV\u6d34
p2091
I1
sV\u51b7
p2092
I1202
sV\u7738
p2093
I91
sV\u793c
p2094
I1036
sV\u8042
p2095
I2
sV\u64c5
p2096
I69
sV\u6ec9
p2097
I18
sV\u5b50
p2098
I6034
sV\u7cd5
p2099
I3
sV\u5d54
p2100
I1
sV\u8bdb
p2101
I117
sV\u645a
p2102
I1
sV\u8ddf
p2103
I3
sV\u97e3
p2104
I1
sV\u54e5
p2105
I14
sV\u8d74
p2106
I238
sV\u9778
p2107
I7
sV\u7bfb
p2108
I1
sV\u997c
p2109
I33
sV\u8201
p2110
I29
sV\u6380
p2111
I25
sV\u8e09
p2112
I13
sV\u6f88
p2113
I48
sV\u900d
p2114
I215
sV\u550f
p2115
I3
sV\u9a11
p2116
I24
sV\u7b90
p2117
I2
sV\u5f13
p2118
I423
sV\u9c15
p2119
I2
sV\u6619
p2120
I22
sV\u681d
p2121
I11
sV\u8e9e
p2122
I50
sV\u90a2
p2123
I11
sV\u7425
p2124
I41
sV\u55a4
p2125
I2
sV\u9aa6
p2126
I11
sV\u7e29
p2127
I1
sV\u5fa8
p2128
I19
sV\u832b
p2129
I897
sV\u852f
p2130
I1
sV\u66ae
p2131
I3013
sV\u72b6
p2132
I226
sV\u5639
p2133
I32
sV\u9b3b
p2134
I25
sV\u74ba
p2135
I3
sV\u7ebe
p2136
I4
sV\u83c0
p2137
I3
sV\u6743
p2138
I224
sV\u8fc8
p2139
I95
sV\u91cc
p2140
I6822
sV\u754f
p2141
I428
sV\u58d2
p2142
I8
sV\u9dd4
p2143
I1
sV\u8659
p2144
I1
sV\u67d8
p2145
I118
sV\u73e0
p2146
I1663
sV\u9e69
p2147
I21
sV\u606d
p2148
I178
sV\u86ee
p2149
I351
sV\u94fa
p2150
I297
sV\u9efe
p2151
I26
sV\u8083
p2152
I489
sV\u8e87
p2153
I45
sV\u9893
p2154
I232
sV\u7f12
p2155
I5
sV\u5b95
p2156
I5
sV\u6697
p2157
I1687
sV\u8018
p2158
I40
sV\u6c9b
p2159
I55
sV\u8e1c
p2160
I1
sV\u5722
p2161
I2
sV\u7ea7
p2162
I41
sV\u5d26
p2163
I35
sV\u87ad
p2164
I106
sV\u8bb5
p2165
I370
sV\u65c1
p2166
I191
sV\u8d46
p2167
I12
sV\u8b4a
p2168
I13
sV\u77cd
p2169
I14
sV\u564c
p2170
I1
sV\u914e
p2171
I22
sV\u5c50
p2172
I138
sV\u6556
p2173
I14
sV\u4fdd
p2174
I324
sV\u695e
p2175
I22
sV\u7762
p2176
I40
sV\u53e5
p2177
I790
sV\u9ee7
p2178
I5
sV\u64eb
p2179
I4
sV\u866c
p2180
I115
sV\u62ef
p2181
I21
sV\u7cfb
p2182
I528
sV\u537a
p2183
I2
sV\u7aff
p2184
I390
sV\u8305
p2185
I625
sV\u6284
p2186
I41
sV\u4e07
p2187
I5577
sV\u970d
p2188
I115
sV\u8596
p2189
I1
sV\u7325
p2190
I9
sV\u58a8
p2191
I311
sV\u73ba
p2192
I23
sV\u79be
p2193
I159
sV\u6043
p2194
I107
sV\u88c8
p2195
I8
sV\u96cc
p2196
I120
sV\u9cd0
p2197
I3
sV\u5fd2
p2198
I16
sV\u60d8
p2199
I17
sV\u9561
p2200
I4
sV\u74e0
p2201
I20
sV\u9969
p2202
I3
sV\u78e8
p2203
I281
sV\u676d
p2204
I64
sV\u81ee
p2205
I1
sV\u95f6
p2206
I1
sV\u50f8
p2207
I1
sV\u7f7d
p2208
I17
sV\u6602
p2209
I110
sV\u8f87
p2210
I335
sV\u6a0a
p2211
I94
sV\u700e
p2212
I1
sV\u5c91
p2213
I291
sV\u5a95
p2214
I1
sV\u6797
p2215
I4059
sV\u6d9b
p2216
I496
sV\u672c
p2217
I1238
sV\u90b9
p2218
I74
sV\u5dbb
p2219
I1
sV\u9ebd
p2220
I5
sV\u5bbf
p2221
I1976
sV\u62c5
p2222
I71
sV\u8c46
p2223
I145
sV\u68c9
p2224
I4
sV\u76cd
p2225
I6
sV\u574c
p2226
I4
sV\u9e52
p2227
I5
sV\u5b54
p2228
I252
sV\u8ddb
p2229
I11
sV\u4edd
p2230
I15
sV\u8bdf
p2231
I9
sV\u7c66
p2232
I1
sV\u8d70
p2233
I756
sV\u5476
p2234
I14
sV\u9178
p2235
I114
sV\u8401
p2236
I5
sV\u8205
p2237
I56
sV\u6988
p2238
I7
sV\u960d
p2239
I35
sV\u778c
p2240
I2
sV\u530f
p2241
I33
sV\u9a15
p2242
I26
sV\u7b94
p2243
I108
sV\u6019
p2244
I4
sV\u829a
p2245
I1
sV\u6e1d
p2246
I41
sV\u9ca6
p2247
I1
sV\u59a8
p2248
I373
sV\u852b
p2249
I11
sV\u832f
p2250
I24
sV\u6eb2
p2251
I1
sV\u5e3d
p2252
I164
sV\u78be
p2253
I47
sV\u6f47
p2254
I386
sV\u89c8
p2255
I236
sV\u754b
p2256
I28
sV\u50ce
p2257
I2
sV\u7953
p2258
I25
sV\u5ed2
p2259
I3
sVY
p2260
I3
sV\u5f67
p2261
I5
sV\u80ee
p2262
I2
sV\u94f6
p2263
I909
sV\u51f8
p2264
I6
sV\u8283
p2265
I12
sV\u6502
p2266
I2
sV\u6f06
p2267
I105
sV\u968b
p2268
I199
sV\u558d
p2269
I1
sV\u730e
p2270
I383
sV\u9a93
p2271
I26
sV\u8c1c
p2272
I5
sV\u9024
p2273
I6
sV\u5f26
p2274
I1249
sV\u592a
p2275
I1727
sV\u642c
p2276
I4
sV\u8fb1
p2277
I197
sV\u6834
p2278
I8
sV\u54b7
p2279
I2
sV\u67c1
p2280
I15
sV\u61c5
p2281
I1
sV\u75cd
p2282
I32
sV\u79d5
p2283
I10
sV\u5854
p2284
I221
sV\u6756
p2285
I470
sV\u88df
p2286
I50
sV\u7f66
p2287
I1
sV\u846c
p2288
I202
sV\u60ef
p2289
I160
sV\u8e70
p2290
I120
sV\u74f7
p2291
I10
sV\u7efb
p2292
I13
sV\u9c7c
p2293
I2004
sV\u6084
p2294
I224
sV\u500f
p2295
I146
sV\u7894
p2296
I3
sV\u8796
p2297
I2
sV\u6db2
p2298
I195
sV\u77b6
p2299
I1
sV\u5339
p2300
I252
sV\u7bbe
p2301
I4
sV\u86c0
p2302
I1
sV\u6243
p2303
I161
sV\u80c4
p2304
I41
sV\u6c47
p2305
I15
sV\u704f
p2306
I2
sV\u9ed0
p2307
I3
sV\u98d4
p2308
I31
sV\u62d8
p2309
I125
sV\u8d5d
p2310
I1
sV\u6cdc
p2311
I1
sV\u9761
p2312
I156
sV\u9165
p2313
I31
sV\u4ef0
p2314
I561
sV\u97f6
p2315
I267
sV\u7379
p2316
I1
sV\u9bfe
p2317
I1
sV\u6402
p2318
I1
sV\u978b
p2319
I52
sV\u680a
p2320
I84
sV\u548d
p2321
I18
sV\u5e91
p2322
I16
sV\u6597
p2323
I1203
sV\u9720
p2324
I1
sV\u5e26
p2325
I1660
sV\u582a
p2326
I1896
sV\u6f30
p2327
I1
sV\u55b7
p2328
I188
sV\u60c5
p2329
I4075
sV\u924e
p2330
I1
sV\u78d5
p2331
I6
sV\u5954
p2332
I457
sV\u6656
p2333
I422
sV\u8fdb
p2334
I447
sV\u605a
p2335
I3
sV\u6a5e
p2336
I1
sV\u5ae9
p2337
I237
sV\u8f70
p2338
I38
sV\u6bf3
p2339
I52
sV\u7ffb
p2340
I1352
sV\u8005
p2341
I2128
sV\u940d
p2342
I6
sV\u9e11
p2343
I23
sV\u7994
p2344
I3
sV\u6219
p2345
I2
sV\u809a
p2346
I14
sV\u57a0
p2347
I42
sV\u94a2
p2348
I5
sV\u51a4
p2349
I230
sV\u9ea6
p2350
I232
sV\u872b
p2351
I1
sV\u812f
p2352
I13
sV\u4e31
p2353
I14
sV\u6cb2
p2354
I1
sV\u9537
p2355
I16
sV\u5239
p2356
I97
sV\u9f3b
p2357
I102
sV\u5c3d
p2358
I5251
sV\u7abe
p2359
I2
sV\u87c0
p2360
I64
sV\u6343
p2361
I4
sV\u81c4
p2362
I1
sV\u6d47
p2363
I80
sV\u4ec6
p2364
I234
sV\u8bc8
p2365
I36
sV\u774b
p2366
I1
sV\u5cd2
p2367
I60
sV\u4f5b
p2368
I448
sV\u8c5d
p2369
I1
sV\u6ddc
p2370
I1
sV\u9661
p2371
I6
sV\u9065
p2372
I2322
sV\u9a69
p2373
I6
sV\u646d
p2374
I15
sV\u82ee
p2375
I2
sV\u96f6
p2376
I482
sV\u7279
p2377
I167
sV\u53f8
p2378
I413
sV\u6b02
p2379
I1
sV\u6106
p2380
I50
sV\u988b
p2381
I1
sV\u9e8f
p2382
I12
sV\u9493
p2383
I978
sV\u6a97
p2384
I26
sV\u8c18
p2385
I5
sV\u609b
p2386
I2
sV\u4f1a
p2387
I1630
sV\u821c
p2388
I226
sV\u9820
p2389
I1
sV\u7ca3
p2390
I1
sV\u572a
p2391
I2
sV\u8bad
p2392
I76
sV\u6a2c
p2393
I1
sV\u87b5
p2394
I1
sV\u6634
p2395
I11
sV\u9db9
p2396
I3
sV\u7c38
p2397
I38
sV\u69c1
p2398
I61
sV\u8146
p2399
I1
sV\u71d1
p2400
I4
sV\u77d5
p2401
I1
sV\u6956
p2402
I4
sV\u80db
p2403
I3
sV\u86df
p2404
I271
sV\u655e
p2405
I94
sV\u9ce3
p2406
I20
sV\u7166
p2407
I46
sV\u68eb
p2408
I1
sVp
p2409
I25
sV\u70fb
p2410
I4
sV\u557e
p2411
I134
sV\u580b
p2412
I2
sV\u7a8c
p2413
I2
sV\u5e0f
p2414
I137
sV\u5413
p2415
I14
sV\u6d19
p2416
I6
sV\u8f9a
p2417
I30
sV\u631d
p2418
I13
sV\u58a0
p2419
I5
sV\u7f25
p2420
I127
sV\u91a6
p2421
I2
sV\u54a8
p2422
I81
sV\u8e2f
p2423
I60
sV\u903b
p2424
I14
sV\u7fba
p2425
I1
sV\u963f
p2426
I282
sV\u75be
p2427
I551
sV\u88c0
p2428
I12
sV\u6c43
p2429
I3
sV\u6247
p2430
I519
sV\u90d0
p2431
I3
sV\u62dc
p2432
I770
sV\u5c63
p2433
I42
sV\u7ee4
p2434
I11
sV\u5267
p2435
I145
sV\u9569
p2436
I2
sV\u83f2
p2437
I244
sV\u6775
p2438
I129
sV\u95fe
p2439
I204
sV\u6006
p2440
I139
sV\u998b
p2441
I14
sV\u660a
p2442
I40
sV\u7c0e
p2443
I1
sV\u4e1a
p2444
I777
sV\u831c
p2445
I23
sV\u5026
p2446
I319
sV\u4faf
p2447
I1135
sV\u80b1
p2448
I47
sV\u6734
p2449
I97
sV\u51bb
p2450
I363
sV\u68c1
p2451
I4
sV\u8046
p2452
I38
sV\u64c9
p2453
I2
sV\u8bd7
p2454
I2855
sV\u81db
p2455
I3
sV\u87df
p2456
I1
sV\u9de3
p2457
I1
sV\u5ee5
p2458
I1
sV\u8b6c
p2459
I28
sV\u6fef
p2460
I256
sV\u8170
p2461
I588
sV\u8774
p2462
I49
sV\u7bf7
p2463
I42
sV\u5e7a
p2464
I7
sV\u77ff
p2465
I5
sV\u6f84
p2466
I589
sV\u5f0f
p2467
I145
sV\u9011
p2468
I2
sV\u9615
p2469
I39
sV\u8896
p2470
I640
sV\u59a0
p2471
I2
sV\u9aa2
p2472
I193
sV\u90a6
p2473
I202
sV\u892b
p2474
I7
sV\u6cae
p2475
I41
sV\uff1f
p2476
I145
sV\u5c39
p2477
I122
sV\u7eba
p2478
I8
sV\u973f
p2479
I3
sV\u6d43
p2480
I35
sV\u8fc4
p2481
I2
sV\u91d0
p2482
I22
sV\u52d2
p2483
I182
sV\u97d4
p2484
I1
sV\u6dd8
p2485
I32
sV\u9e65
p2486
I30
sV\u5367
p2487
I1412
sV\u98f6
p2488
I4
sV\u7c79
p2489
I3
sV\u8e83
p2490
I3
sV\u8087
p2491
I40
sV\u9a8b
p2492
I101
sV\u598d
p2493
I220
sV\u7f0e
p2494
I1
sV\u6897
p2495
I71
sV\u8e18
p2496
I5
sV\u629b
p2497
I472
sV\u801c
p2498
I13
sV\u7ea3
p2499
I11
sV\u5326
p2500
I2
sV\u83b1
p2501
I337
sV\u6434
p2502
I47
sV\u52bb
p2503
I3
sV\u91bd
p2504
I12
sV\u703c
p2505
I25
sV\u54bf
p2506
I41
sV\u6bc1
p2507
I97
sV\u6dc5
p2508
I129
sV\u8346
p2509
I751
sV\u854a
p2510
I344
sV\u79cd
p2511
I817
sV\u584c
p2512
I8
sV\u73d1
p2513
I142
sV\u9152
p2514
I4809
sV\u75d5
p2515
I433
sV\u4fd9
p2516
I2
sV\u82db
p2517
I14
sV\u6d5a
p2518
I30
sV\u84df
p2519
I105
sV\u675e
p2520
I47
sV\u5be1
p2521
I143
sV\u7962
p2522
I19
sV\u5de5
p2523
I320
sV\u90e7
p2524
I7
sV\u756a
p2525
I74
sV\u886c
p2526
I32
sV\u6cef
p2527
I36
sV\u8270
p2528
I230
sV\u66f3
p2529
I203
sV\u78f7
p2530
I107
sV\u72fb
p2531
I8
sV\u5d7a
p2532
I2
sV\u74ff
p2533
I3
sV\u6a80
p2534
I166
sV\u4e03
p2535
I880
sV\u6c84
p2536
I18
sV\u8709
p2537
I29
sV\u990d
p2538
I2
sV\u788c
p2539
I41
sV\u5c0f
p2540
I2464
sV\u6f19
p2541
I7
sV\u4e98
p2542
I42
sV\u8d9a
p2543
I5
sV\u7b21
p2544
I1
sV\u5aa0
p2545
I1
sV\u7729
p2546
I30
sV\u8c2f
p2547
I41
sV\u5f39
p2548
I576
sV\u513d
p2549
I1
sV\u6e43
p2550
I4
sV\u6047
p2551
I2
sV\u60dc
p2552
I1282
sV\u7ae0
p2553
I1170
sV\u9769
p2554
I67
sV\u8fee
p2555
I3
sV\u81f2
p2556
I5
sV\u7f79
p2557
I46
sV\u717d
p2558
I2
sV\u8f83
p2559
I41
sV\u8187
p2560
I1
sV\u6206
p2561
I23
sV\u640a
p2562
I2
sV\u588d
p2563
I2
sV\u9793
p2564
I2
sV\u8f18
p2565
I1
sV\u659f
p2566
I100
sV\u88ad
p2567
I83
sV\u82b1
p2568
I11121
sV\u59b7
p2569
I1
sV\u9eb9
p2570
I62
sV\u7f38
p2571
I57
sV\u53bb
p2572
I7595
sV\u90bd
p2573
I5
sV\u6ac1
p2574
I1
sV\u6cc5
p2575
I2
sV\u4e8c
p2576
I1996
sV\u9052
p2577
I28
sV\u4ed9
p2578
I3432
sV\u85df
p2579
I9
sV\u665e
p2580
I55
sV\u5ae1
p2581
I4
sV\u5ce5
p2582
I97
sV\u7266
p2583
I7
sV\u6beb
p2584
I353
sV\u67f3
p2585
I2878
sV\u8574
p2586
I75
sV\u5c7a
p2587
I3
sV\u75ff
p2588
I2
sV\u8c05
p2589
I115
sV\u4f98
p2590
I1
sV\u601d
p2591
I5089
sV\u5ba0
p2592
I413
sV\u98a2
p2593
I26
sV\u8d2f
p2594
I152
sV\u60b2
p2595
I2152
sV\u8bc0
p2596
I109
sV\u8dc4
p2597
I22
sV\u7b4b
p2598
I148
sV\u8e59
p2599
I122
sV\u5f63
p2600
I1
sV\u9669
p2601
I477
sV\u6475
p2602
I24
sV\u5ff8
p2603
I6
sV\u96fe
p2604
I876
sV\u6f02
p2605
I181
sV\u9c8b
p2606
I9
sV\u9a8f
p2607
I160
sV\u5591
p2608
I7
sV\u9093
p2609
I53
sV\u5395
p2610
I24
sV\u629f
p2611
I62
sV\u78a3
p2612
I64
sV\u5f22
p2613
I10
sV\u532a
p2614
I166
sV\u6430
p2615
I6
sV\u6234
p2616
I274
sV\u5eb7
p2617
I281
sV\u99b9
p2618
I5
sV\u54bb
p2619
I2
sV\u763c
p2620
I19
sV\u52bf
p2621
I748
sV\u6bc5
p2622
I19
sV\u5e4c
p2623
I122
sV\u994e
p2624
I2
sV\u75d1
p2625
I1
sV\u5450
p2626
I2
sV\u9752
p2627
I6332
sV\u5254
p2628
I13
sV\u82df
p2629
I167
sV\u5de1
p2630
I348
sV\u7f62
p2631
I1015
sV\u5be5
p2632
I837
sV\u7566
p2633
I134
sV\u6ceb
p2634
I45
sV\u8e6c
p2635
I35
sV\u60f3
p2636
I1064
sV\u7ef7
p2637
I10
sV\u9878
p2638
I1
sV\u5b7a
p2639
I57
sV\u6a84
p2640
I97
sV\u8109
p2641
I270
sV\u9f0d
p2642
I68
sV\u7490
p2643
I1
sV\u671d
p2644
I5651
sV\u7b25
p2645
I46
sV\u50a8
p2646
I102
sV\u8033
p2647
I553
sV\u67b2
p2648
I2
sV\u9e37
p2649
I28
sV\u5939
p2650
I264
sV\u6843
p2651
I1569
sV\u57d2
p2652
I28
sV\u68d8
p2653
I195
sV\u875d
p2654
I1
sV\u66dc
p2655
I128
sV\u7ce0
p2656
I21
sV\u9169
p2657
I50
sV\u70e8
p2658
I4
sV\u6f6d
p2659
I667
sV\u58f8
p2660
I1
sV\u777d
p2661
I15
sV\u8983
p2662
I31
sV\u9d8b
p2663
I5
sV\u620a
p2664
I15
sV\u659b
p2665
I45
sV\u871c
p2666
I64
sV\u5e22
p2667
I2
sV\u9b24
p2668
I1
sV\u5426
p2669
I220
sV\u84b1
p2670
I6
sV\u5fb7
p2671
I1300
sV\u55bb
p2672
I95
sV\u96bd
p2673
I15
sV\u773c
p2674
I1396
sV\u53bf
p2675
I606
sV\u8e42
p2676
I4
sV\u8446
p2677
I24
sV\u60c9
p2678
I1
sV\u7ecd
p2679
I21
sV\u5550
p2680
I3
sV\u6a5a
p2681
I2
sV\u83df
p2682
I12
sV\u605e
p2683
I1
sV\u5ce1
p2684
I546
sV\u97e7
p2685
I1
sV\u6deb
p2686
I116
sV\u8f6c
p2687
I1936
sV\u6bef
p2688
I19
sV\u5a7a
p2689
I30
sV\u507e
p2690
I1
sV\u8c01
p2691
I4820
sV\u6b84
p2692
I13
sV\u7f8c
p2693
I161
sV\u5113
p2694
I2
sV\u5ba4
p2695
I923
sV\u94a6
p2696
I73
sV\u7029
p2697
I1
sV\u8d2b
p2698
I1171
sV\u4e2d
p2699
I11140
sV\u9f37
p2700
I3
sV\u953b
p2701
I12
sV\u8dc0
p2702
I1
sV\u8bc4
p2703
I35
sV\u7b4f
p2704
I12
sVL
p2705
I7
sV\u4f57
p2706
I16
sV\u8859
p2707
I94
sV\u67dc
p2708
I4
sV\u9069
p2709
I2
sV\u767d
p2710
I8287
sV\u57fc
p2711
I1
sV\u90fe
p2712
I2
sV\u4f81
p2713
I3
sV\u9e8b
p2714
I139
sV\u988f
p2715
I3
sV\u7512
p2716
I2
sV\u5195
p2717
I177
sV\u609f
p2718
I296
sV\u9e20
p2719
I60
sV\u7aa3
p2720
I41
sV\u74a7
p2721
I263
sV\u4eab
p2722
I118
sV\u5cb7
p2723
I57
sV\u9bb9
p2724
I2
sV\u743c
p2725
I692
sV\u8d42
p2726
I6
sV\u69c5
p2727
I1
sV\u63c9
p2728
I15
sV\u814a
p2729
I293
sV\u77d1
p2730
I1
sV\u9552
p2731
I7
sV\u71d5
p2732
I1592
sV\u86db
p2733
I72
sV\u695a
p2734
I2102
sV\u635e
p2735
I7
sV\u5fe1
p2736
I34
sV\u59e5
p2737
I30
sV\u7766
p2738
I17
sV\u53e9
p2739
I90
sV\u6eeb
p2740
I2
sV\u62f3
p2741
I108
sVt
p2742
I10
sV\u9a78
p2743
I7
sV\u76fb
p2744
I10
sV\u8309
p2745
I2
sV\u5213
p2746
I9
sV\u8f96
p2747
I41
sV\u6b19
p2748
I1
sV\u839e
p2749
I7
sV\u7f21
p2750
I3
sV\u5ea0
p2751
I13
sV\u9da2
p2752
I5
sV\u97a6
p2753
I5
sV\u7329
p2754
I95
sV\u52a8
p2755
I2299
sV\u91aa
p2756
I143
sV\u8233
p2757
I17
sV\u963b
p2758
I422
sV\u79ba
p2759
I13
sV\u553d
p2760
I1
sV\u6447
p2761
I1169
sV\u82c8
p2762
I2
sV\u9ccc
p2763
I141
sV\u855d
p2764
I2
sV\u7ee0
p2765
I40
sV\u9965
p2766
I546
sV\u72e8
p2767
I1
sV\u8bee
p2768
I42
sV\u6175
p2769
I334
sV\u7b79
p2770
I162
sV\u8587
p2771
I157
sV\u6606
p2772
I312
sV\u600a
p2773
I5
sV\u998f
p2774
I1
sV\u7a0e
p2775
I123
sV\u4e16
p2776
I2812
sV\u9f20
p2777
I191
sV\u9924
p2778
I1
sV\u502a
p2779
I37
sV\u5db7
p2780
I22
sV\u9ab9
p2781
I2
sV\u6ec1
p2782
I3
sV\u8646
p2783
I1
sV\u62c9
p2784
I7
sV\u804a
p2785
I545
sV\u5d4c
p2786
I42
sV\u9a4e
p2787
I24
sV\u76d1
p2788
I90
sV\u5750
p2789
I2765
sV\u5154
p2790
I357
sV\u8dd7
p2791
I11
sV\u6e56
p2792
I1580
sV\u87db
p2793
I3
sV\u625e
p2794
I4
sV\u52e9
p2795
I3
sV\u63f3
p2796
I1
sV\u8174
p2797
I31
sV\u5e76
p2798
I774
sV\u77fb
p2799
I36
sV\u6984
p2800
I1
sV\u6388
p2801
I215
sV\u5f0b
p2802
I38
sV\u590f
p2803
I915
sV\u9611
p2804
I563
sV\u7194
p2805
I22
sV\u889a
p2806
I2
sV\ue41d
p2807
I5
sV\u7825
p2808
I29
sV\u59a4
p2809
I18
sV\u53a8
p2810
I172
sV\u90aa
p2811
I172
sV\u7eb6
p2812
I261
sV\u6b43
p2813
I3
sV\u89c4
p2814
I264
sV\u794f
p2815
I2
sV\u7353
p2816
I1
sV\u7fe0
p2817
I2477
sV\u5b63
p2818
I208
sV\u79e4
p2819
I14
sV\u5567
p2820
I29
sV\u6c6d
p2821
I18
sV\u7a79
p2822
I132
sV\u5bf8
p2823
I444
sV\u747d
p2824
I2
sV\u92fe
p2825
I1
sV\u5181
p2826
I1
sV\u3000
p2827
I273616
sV\u9a87
p2828
I94
sV\u808b
p2829
I5
sV\u7f0a
p2830
I18
sV\u868f
p2831
I1
sV\u7297
p2832
I1
sV\u789b
p2833
I203
sV 
p2834
I138896
sV\u8c28
p2835
I12
sV\u4f2a
p2836
I32
sV\u722c
p2837
I10
sV\u7830
p2838
I9
sV\u5cb3
p2839
I892
sV\u8bbd
p2840
I47
sV\u4ebf
p2841
I87
sV\u7dc9
p2842
I1
sV\u5c48
p2843
I393
sV\u4e54
p2844
I249
sV\u92d7
p2845
I1
sV\u775a
p2846
I5
sV\u5bdd
p2847
I334
sV\u9edf
p2848
I2
sV\u84e3
p2849
I2
sV\u6362
p2850
I405
sV\u76ef
p2851
I2
sV\u556e
p2852
I44
sV\u9e74
p2853
I14
sV\u7080
p2854
I40
sV\u5403
p2855
I96
sV\u9705
p2856
I23
sV\u7684
p2857
I204
sV\u5a07
p2858
I530
sV\u6890
p2859
I2
sV\u6e94
p2860
I1
sV\u979a
p2861
I20
sV\u962f
p2862
I9
sV\u75ae
p2863
I93
sV\u5931
p2864
I1004
sV\u8237
p2865
I36
sV\u53c2
p2866
I736
sV\u96c4
p2867
I860
sV\u59c6
p2868
I1
sV\u604b
p2869
I598
sV\u82cc
p2870
I7
sV\u664f
p2871
I283
sV\u74d8
p2872
I4
sV\u60e0
p2873
I359
sV\u8765
p2874
I9
sV\u8d69
p2875
I16
sV\u6ce8
p2876
I216
sV\u736d
p2877
I28
sV\u95ee
p2878
I2622
sV\u58f0
p2879
I6024
sV\u87fa
p2880
I3
sV\u5685
p2881
I2
sV\u7806
p2882
I4
sV\u818b
p2883
I10
sV\u4e95
p2884
I977
sV\u5016
p2885
I2
sV\u8030
p2886
I3
sV\u8d28
p2887
I325
sV\u4e2a
p2888
I336
sV\u732c
p2889
I9
sV\u7f34
p2890
I43
sV\u84b9
p2891
I94
sV\u6538
p2892
I47
sV\u4fbf
p2893
I1343
sV\u70c1
p2894
I49
sV\u5140
p2895
I182
sV\u9e4a
p2896
I334
sV\u62cd
p2897
I141
sV\u6ed5
p2898
I23
sV\u54d9
p2899
I3
sV\u7c5e
p2900
I20
sV\u8be7
p2901
I8
sV\u6866
p2902
I8
sV\u9970
p2903
I137
sV\u8578
p2904
I1
sV\u9001
p2905
I1887
sV\u9605
p2906
I138
sV\u820d
p2907
I778
sV\u638c
p2908
I384
sV\u8811
p2909
I1
sV\u5598
p2910
I39
sV\u5b9c
p2911
I1051
sV\u6021
p2912
I115
sV\u6625
p2913
I10872
sV\u6cbe
p2914
I709
sV\u7b47
p2915
I78
sV\u5eca
p2916
I277
sV\u83cc
p2917
I67
sV\u674f
p2918
I459
sV\u89d0
p2919
I31
sV\u6d53
p2920
I520
sV\u8fd4
p2921
I426
sV\u5357
p2922
I5655
sVa
p2923
I14
sV\u8665
p2924
I2
sV\u67e4
p2925
I1
sV\u8c69
p2926
I1
sV\u53ec
p2927
I177
sV\u94ee
p2928
I34
sV\u9af2
p2929
I1
sV\u80f6
p2930
I96
sV\u6479
p2931
I4
sV\u9683
p2932
I1
sV\u9887
p2933
I249
sV\u7b06
p2934
I3
sV\u5f89
p2935
I8
sV\u828b
p2936
I29
sV\u7d0a
p2937
I3
sV\u6912
p2938
I139
sV\u5316
p2939
I1374
sV\u7c9f
p2940
I195
sV\u8220
p2941
I15
sV\u8424
p2942
I276
sV\u68a7
p2943
I444
sV\u52ab
p2944
I157
sV\u91ad
p2945
I4
sV\u5eb3
p2946
I12
sV\u7c34
p2947
I12
sV\uff08
p2948
I844
sV\u683c
p2949
I257
sV\u9142
p2950
I20
sV\u75c5
p2951
I1831
sV\u9d4a
p2952
I6
sV\u874e
p2953
I9
sV\u90d7
p2954
I11
sV\u57d9
p2955
I18
sV\u755a
p2956
I14
sV\u59dd
p2957
I39
sV\u9cdf
p2958
I2
sV\u86e3
p2959
I1
sV\u6162
p2960
I186
sV\u6b66
p2961
I1024
sV\u4fe9
p2962
I3
sV\u6d6a
p2963
I1468
sV\u74ef
p2964
I98
sV\u9a70
p2965
I544
sV\u7ef3
p2966
I201
sV\u4f7e
p2967
I15
sV\u7280
p2968
I162
sV\u9505
p2969
I4
sV\u5807
p2970
I6
sV\u810d
p2971
I28
sV\u608c
p2972
I12
sV\u6a90
p2973
I579
sV\u4e13
p2974
I192
sV\u6c94
p2975
I10
sV\u7719
p2976
I4
sV\u5698
p2977
I4
sV\u8ba6
p2978
I7
sV\u6f29
p2979
I7
sV\u4ea8
p2980
I39
sV\u512d
p2981
I1
sV\u9e33
p2982
I605
sV7
p2983
I6
sV\u8c3f
p2984
I182
sV\u6fbe
p2985
I1
sV\u7643
p2986
I2
sV\u94c4
p2987
I74
sV\u7847
p2988
I1
sV\u5bc6
p2989
I575
sV\u9ec8
p2990
I3
sV\u624b
p2991
I1695
sV\u80cc
p2992
I673
sV\u644f
p2993
I1
sV\u6e53
p2994
I77
sV\u9759
p2995
I2205
sV\u76d8
p2996
I1000
sV\u5c5f
p2997
I12
sV\u8361
p2998
I680
sV\u8f69
p2999
I1140
sV\u6ee8
p3000
I318
sV\u50ec
p3001
I1
sV\u7b71
p3002
I66
sV\u83f6
p3003
I3
sV\u5281
p3004
I1
sV\u858f
p3005
I14
sV\u660e
p3006
I6647
sV\u8f93
p3007
I216
sV\u5216
p3008
I18
sV\u7d9f
p3009
I2
sV\u67a3
p3010
I73
sV\u8f28
p3011
I1
sV\u9cb5
p3012
I38
sV\u88bd
p3013
I1
sV\u72c1
p3014
I3
sV\u9042
p3015
I747
sV\u74c5
p3016
I3
sV\u5544
p3017
I243
sV\u864e
p3018
I1001
sV\u6ad1
p3019
I1
sV\u8852
p3020
I18
sV\u6cd5
p3021
I587
sV\u7256
p3022
I167
sV\u745a
p3023
I116
sV\u58dd
p3024
I2
sV\u9ddf
p3025
I22
sV\u6062
p3026
I42
sV\u6a66
p3027
I8
sV\u6c6a
p3028
I25
sV\u916c
p3029
I439
sV\u7ff3
p3030
I178
sV\u4e7e
p3031
I402
sV\u5703
p3032
I203
sV\u5907
p3033
I272
sV\u800d
p3034
I3
sV\u8c15
p3035
I45
sV\u6d94
p3036
I50
sV\u781d
p3037
I1
sV\u6221
p3038
I13
sV\u80a2
p3039
I58
sV\u6425
p3040
I2
sV\u6e29
p3041
I296
sV\u4fa8
p3042
I8
sV\u502d
p3043
I5
sV\u952f
p3044
I12
sV\u76ae
p3045
I206
sV\u5a31
p3046
I237
sV\u62b6
p3047
I3
sV\u64ba
p3048
I1
sV\u8d3f
p3049
I5
sV\u7947
p3050
I86
sV\u634b
p3051
I16
sV\u654f
p3052
I21
sV\u8bd0
p3053
I2
sV\u6f53
p3054
I5
sV\u5b5b
p3055
I12
sV\u63e0
p3056
I3
sV\u8e69
p3057
I4
sV\u706d
p3058
I659
sV\u7a71
p3059
I1
sV\u5bf0
p3060
I189
sV\u5df4
p3061
I603
sV\u82f6
p3062
I7
sV\u5581
p3063
I10
sV\u9083
p3064
I44
sV\u5385
p3065
I58
sV\u9e87
p3066
I8
sV\u848b
p3067
I41
sV\u610e
p3068
I2
sV\u7a9f
p3069
I204
sV\u25a1
p3070
I638
sV\u60a3
p3071
I137
sV\u6ea7
p3072
I6
sV\u54ab
p3073
I124
sV\u97ad
p3074
I528
sV\u9db1
p3075
I36
sV\u7c30
p3076
I1
sV\u8fbd
p3077
I255
sV\u6e3c
p3078
I5
sV\u75c1
p3079
I1
sV\u5440
p3080
I52
sV\u79c9
p3081
I202
sV\u6dd1
p3082
I92
sV\u8f52
p3083
I2
sV\u6bd5
p3084
I284
sV\u5fdd
p3085
I226
sV\u9adf
p3086
I6
sV\u795e
p3087
I2857
sV\u80e3
p3088
I1
sV\u6d66
p3089
I948
sV\u966c
p3090
I30
sV\u72ef
p3091
I2
sV\u516e
p3092
I1725
sV\u9a74
p3093
I67
sV\u66f7
p3094
I62
sVx
p3095
I19
sV\u6cfb
p3096
I158
sV\u9501
p3097
I536
sV\u7480
p3098
I16
sV\u870d
p3099
I51
sV\u668c
p3100
I47
sV\u6c90
p3101
I150
sV\u7119
p3102
I22
sV\u939a
p3103
I2
sV\u7f1d
p3104
I139
sV\u5e9c
p3105
I868
sV\u6325
p3106
I392
sV\u8baa
p3107
I4
sV\u572d
p3108
I108
sV\u5d31
p3109
I5
sV\u7fb2
p3110
I131
sV\u63ba
p3111
I13
sV\u4f3d
p3112
I28
sV\u69be
p3113
I8
sV\u57c2
p3114
I2
sV\u92c4
p3115
I1
sV\u7e47
p3116
I29
sV\u644b
p3117
I2
sV\u6853
p3118
I72
sV\u9159
p3119
I1
sV\u70d8
p3120
I34
sV\u7edc
p3121
I132
sV\u8561
p3122
I1
sV\u8365
p3123
I22
sV\u68e8
p3124
I9
sV\u5cf0
p3125
I2113
sV\u7b75
p3126
I728
sV\u5889
p3127
I43
sV\u858b
p3128
I1
sV\u7a0a
p3129
I9
sV\u600e
p3130
I2
sV\u7d9b
p3131
I1
sV\u521a
p3132
I111
sV\u581e
p3133
I94
sV\u6fa7
p3134
I15
sV\u7b34
p3135
I2
sV\u6f3c
p3136
I5
sV\u5540
p3137
I2
sV\u9642
p3138
I198
sV\u5948
p3139
I568
sVN
p3140
I9
sV\u8e52
p3141
I1
sV\u785e
p3142
I1
sV\u81e3
p3143
I1286
sV\u79f3
p3144
I1
sV\u5e72
p3145
I1170
sV\u6dfb
p3146
I592
sV\u8f7c
p3147
I28
sV\u6bff
p3148
I2
sV\u7384
p3149
I1124
sV\u5f07
p3150
I3
sV\u678c
p3151
I10
sV\u8c11
p3152
I38
sV\u9496
p3153
I1
sV\u5f9c
p3154
I4
sV\u6829
p3155
I9
sV\u70ae
p3156
I15
sV\u5c31
p3157
I598
sV\u7eb2
p3158
I86
sV\u5a35
p3159
I1
sV\u8737
p3160
I1
sV\u64b6
p3161
I2
sV\u8d3b
p3162
I112
sV\u4e3d
p3163
I526
sV\u634f
p3164
I4
sV\u8bd4
p3165
I5
sV\u5757
p3166
I51
sV\u5b5f
p3167
I383
sV\u8461
p3168
I16
sV\u65e0
p3169
I15424
sV\u8869
p3170
I5
sV\u6079
p3171
I4
sV\u88fe
p3172
I184
sV\u5185
p3173
I969
sV\u9c87
p3174
I1
sV\u7f06
p3175
I79
sV\u5b89
p3176
I2979
sV\u868b
p3177
I23
sV\u790a
p3178
I2
sV\u4f91
p3179
I6
sV\u8a93
p3180
I175
sV\u6d12
p3181
I603
sV\u7e9b
p3182
I29
sV\u789f
p3183
I3
sV\u6ca7
p3184
I966
sV\u4f26
p3185
I185
sV\u742c
p3186
I8
sV\u7834
p3187
I1056
sV\u83b9
p3188
I91
sV\u5640
p3189
I10
sV\u9542
p3190
I86
sV\u65cd
p3191
I4
sV\u6fd1
p3192
I113
sV\u4e50
p3193
I2389
sV\u8d52
p3194
I3
sV\u94d7
p3195
I14
sV\u53d9
p3196
I73
sV\u9edb
p3197
I249
sV\u5ddd
p3198
I1828
sV\u98df
p3199
I1373
sV\u82e3
p3200
I5
sV\u6562
p3201
I932
sV\u6f66
p3202
I73
sV\u536e
p3203
I120
sV\u9e70
p3204
I254
sV\u5d72
p3205
I7
sV\u9701
p3206
I453
sV\u5203
p3207
I165
sV\u7a88
p3208
I139
sV\u6e90
p3209
I635
sV\u8915
p3210
I13
sV\u5298
p3211
I3
sV\u902f
p3212
I1
sV\u73ae
p3213
I1
sV\u5f31
p3214
I336
sV\u67b6
p3215
I190
sV\u61ba
p3216
I1
sV\u96c0
p3217
I510
sV\u90c4
p3218
I30
sV\u5fc6
p3219
I2235
sV\u664b
p3220
I311
sV\u59ca
p3221
I25
sV\u88d4
p3222
I62
sV\u5457
p3223
I5
sV\u72d8
p3224
I1
sV\u5e5b
p3225
I5
sV\u7cdc
p3226
I17
sV\u8165
p3227
I199
sV\u7f71
p3228
I2
sV\u8bfe
p3229
I51
sV\u7f01
p3230
I79
sV\u5085
p3231
I180
sV\u7e06
p3232
I17
sV\u818f
p3233
I221
sV\u620e
p3234
I696
sV\u4e91
p3235
I13151
sV\u7597
p3236
I23
sV\u501a
p3237
I1437
sV\u63a3
p3238
I64
sV\u8124
p3239
I9
sV\u6da7
p3240
I681
sV\u57ab
p3241
I21
sV\u752c
p3242
I7
sV\u51af
p3243
I115
sV\u7f30
p3244
I19
sV\u5bb3
p3245
I125
sV\u7934
p3246
I7
sV\u82b9
p3247
I33
sV\u6d3c
p3248
I32
sV\u5740
p3249
I19
sV\u5144
p3250
I472
sV\u9e46
p3251
I21
sV\u64cd
p3252
I191
sV\u824e
p3253
I11
sV\u6ed1
p3254
I182
sV\u4f50
p3255
I269
sV\u68d5
p3256
I26
sV\u7656
p3257
I56
sV\u7a5e
p3258
I1
sV\u8de7
p3259
I8
sV\u77eb
p3260
I117
sV\u956c
p3261
I13
sV\u9f70
p3262
I5
sV\u9974
p3263
I12
sV\u65f7
p3264
I433
sV\u69ff
p3265
I125
sV\u9601
p3266
I1644
sV\u7780
p3267
I2
sV\u9005
p3268
I29
sV\u5d07
p3269
I343
sV\u840d
p3270
I293
sV\u658c
p3271
I1
sV\u8815
p3272
I4
sV\u6994
p3273
I33
sV\u5398
p3274
I23
sV\u7c1d
p3275
I2
sV\u9a9e
p3276
I28
sV\u84a2
p3277
I1
sV\u6025
p3278
I934
sV\u88aa
p3279
I8
sV\u542d
p3280
I4
sV\u912f
p3281
I1
sV\u5e31
p3282
I7
sV\u7cb2
p3283
I83
sV\u5835
p3284
I45
sV\u8537
p3285
I41
sV\u60ba
p3286
I1
sV\u54c2
p3287
I40
sV\u7d47
p3288
I2
sV\u9bc8
p3289
I1
sV\u8fd0
p3290
I359
sVe
p3291
I62
sV\u9cf2
p3292
I3
sV\u6279
p3293
I19
sV\u5f85
p3294
I1661
sV\u5589
p3295
I75
sV\u888b
p3296
I9
sV\u770a
p3297
I7
sV\u8e8f
p3298
I1
sV\u6d0e
p3299
I8
sV\u7a97
p3300
I1778
sV\u5916
p3301
I3148
sV\u921c
p3302
I1
sV\u6ca3
p3303
I19
sV\u8428
p3304
I14
sV\u7030
p3305
I33
sV\u54b3
p3306
I9
sV\u7634
p3307
I287
sV\u6c38
p3308
I985
sV\u83bd
p3309
I140
sV\u79c1
p3310
I322
sV\u9b42
p3311
I1156
sV\u7fc5
p3312
I263
sV\u5e44
p3313
I91
sV\u9146
p3314
I15
sV\u5448
p3315
I217
sV\u6bcd
p3316
I517
sV\u8d4e
p3317
I19
sV\u61d1
p3318
I6
sV\u8352
p3319
I1406
sV\u7956
p3320
I437
sV\u90db
p3321
I11
sV\u7f5a
p3322
I32
sV\u6b62
p3323
I494
sV\u676a
p3324
I101
sV\u9a6c
p3325
I4842
sV\u7eef
p3326
I40
sV\u9070
p3327
I2
sV\u9674
p3328
I8
sV\u8c78
p3329
I67
sV\u4f7a
p3330
I6
sV\u66ff
p3331
I82
sV\u5207
p3332
I451
sV\u9509
p3333
I6
sV\u7488
p3334
I3
sV\u8111
p3335
I61
sV\u8715
p3336
I39
sV\u9996
p3337
I1549
sV\u5c98
p3338
I121
sV\u9f9a
p3339
I28
sV\u4ea4
p3340
I1352
sV\u982b
p3341
I4
sV\u9e2f
p3342
I362
sV\u7dae
p3343
I1
sV\u73b2
p3344
I128
sV\u803b
p3345
I236
sV\u5bc2
p3346
I1865
sV\u9ec4
p3347
I3711
sV\u7247
p3348
I1071
sV\u51c6
p3349
I46
sV\u57ca
p3350
I1
sV\u5a57
p3351
I2
sV\u68e0
p3352
I189
sV\u6ee4
p3353
I17
sV\u50f0
p3354
I8
sV\u56f4
p3355
I306
sV\u637d
p3356
I9
sV\u85fe
p3357
I2
sV\u5881
p3358
I1
sV\u7a02
p3359
I7
sV\u8f8f
p3360
I1
sV\u6c0e
p3361
I9
sV\u6212
p3362
I196
sV\u7b97
p3363
I174
sV\u719b
p3364
I2
sV\u5e1a
p3365
I28
sV\u541e
p3366
I277
sV\u6da3
p3367
I25
sV\u8f24
p3368
I1
sV\u63a7
p3369
I86
sV\u59ab
p3370
I4
sV\u9aad
p3371
I2
sV\u7b2c
p3372
I748
sV\u5faf
p3373
I10
sV\u7130
p3374
I269
sV\u96b5
p3375
I2
sV\u7734
p3376
I1
sV\u6d38
p3377
I7
sV\u82bd
p3378
I159
sV\u633c
p3379
I17
sV\u78c1
p3380
I1
sV\u7ec5
p3381
I66
sV\u964a
p3382
I1
sV\u60d1
p3383
I108
sV\u8252
p3384
I1
sV\u7856
p3385
I11
sV\u5cd9
p3386
I26
sV\u745e
p3387
I529
sV\u8de3
p3388
I7
sV\u4ee5
p3389
I2092
sV\u79eb
p3390
I4
sV\u5272
p3391
I122
sV\u9774
p3392
I24
sV\u6bf7
p3393
I1
sV\u837c
p3394
I15
sV\u67ff
p3395
I25
sV\u7980
p3396
I59
sV\u7588
p3397
I1
sV\u4f0f
p3398
I453
sV\u9896
p3399
I30
sV\u5d98
p3400
I2
sV\u9e9a
p3401
I6
sV\u721d
p3402
I4
sV\u949e
p3403
I6
sV\u6821
p3404
I220
sV\u6e25
p3405
I86
sV\u80a6
p3406
I1
sV\u992b
p3407
I1
sV\u86aa
p3408
I1
sV\u5a2d
p3409
I4
sV\u9f2f
p3410
I27
sV\u7cae
p3411
I93
sV\u8b37
p3412
I1
sV\u6eba
p3413
I66
sV\u873f
p3414
I19
sV\u5ac2
p3415
I21
sV\u56ca
p3416
I295
sV\u6f4f
p3417
I22
sV\u5b57
p3418
I938
sV\u9c59
p3419
I1
sV\u575f
p3420
I281
sV\u8861
p3421
I423
sV\u69e0
p3422
I6
sV\u8469
p3423
I53
sV\u65e8
p3424
I201
sV\u51f0
p3425
I390
sV\u57f4
p3426
I4
sV\u6c79
p3427
I48
sV\u5b81
p3428
I1067
sV\u9e83
p3429
I1
sV\u5d85
p3430
I2
sV\u6f0e
p3431
I2
sV\u8693
p3432
I10
sV\u7897
p3433
I87
sV\u5b16
p3434
I4
sV\u5d1a
p3435
I10
sV\u749f
p3436
I2
sV\u571e
p3437
I3
sV\u8c24
p3438
I58
sV\u7230
p3439
I74
sV\u7434
p3440
I1409
sV\u8fb9
p3441
I3134
sV\u6e38
p3442
I4231
sV\u7bc1
p3443
I168
sV\u5a40
p3444
I22
sV\u954a
p3445
I41
sV\u8152
p3446
I2
sV\u98d7
p3447
I40
sV\u7b56
p3448
I571
sV\u5fd9
p3449
I240
sV\u51dd
p3450
I1033
sV\u6962
p3451
I2
sV\u80e7
p3452
I111
sV\u7aeb
p3453
I2
sV\u7cef
p3454
I5
sV\u64ff
p3455
I5
sV\u7a80
p3456
I2
sV\u5e03
p3457
I502
sV\u9d05
p3458
I1
sV\u7688
p3459
I2
sV\u8311
p3460
I17
sV\u7f19
p3461
I31
sV\u979e
p3462
I30
sV\u6b21
p3463
I421
sV\u6d25
p3464
I725
sV\u83a6
p3465
I1
sV\u85aa
p3466
I143
sV\u592d
p3467
I166
sV\u9633
p3468
I4391
sV\u823b
p3469
I33
sV\u9ac0
p3470
I12
sV\u9cc4
p3471
I3
sV\u7047
p3472
I1
sV\u53c6
p3473
I10
sV\u4fce
p3474
I119
sV\u6653
p3475
I2293
sV\u7ed8
p3476
I19
sV\u915d
p3477
I68
sV\u70dc
p3478
I10
sV\u66e8
p3479
I26
sV\u796d
p3480
I119
sV\u58ec
p3481
I9
sV\u617d
p3482
I1
sV\u87fe
p3483
I197
sV\u9f83
p3484
I7
sV\u7802
p3485
I198
sV\u9187
p3486
I35
sV\u7206
p3487
I11
sV\u740a
p3488
I12
sV\u6e0e
p3489
I26
sV\u8793
p3490
I5
sV\u6012
p3491
I211
sV\u7997
p3492
I4
sV\u739b
p3493
I9
sV\u5c1a
p3494
I1556
sV\u911c
p3495
I9
sV\u759f
p3496
I18
sV\u8d24
p3497
I1468
sV\u61a7
p3498
I36
sV\u5bab
p3499
I3045
sV\u7330
p3500
I12
sV\u94b5
p3501
I80
sV\u7ac1
p3502
I2
sV\u5b40
p3503
I32
sV\u7cc5
p3504
I4
sV\u68cd
p3505
I1
sV\u8052
p3506
I39
sV\u5ed9
p3507
I1
sV\u50dd
p3508
I1
sV\u765e
p3509
I1
sV\u6862
p3510
I14
sV\u81e7
p3511
I31
sV\u996c
p3512
I13
sV\u5e6e
p3513
I2
sV\u77f3
p3514
I4314
sV\u5072
p3515
I5
sV\u8f78
p3516
I89
sV\u7b80
p3517
I308
sV\u5f03
p3518
I572
sV\u9c05
p3519
I1
sV\u9609
p3520
I2
sV\u6390
p3521
I3
sV\u9a96
p3522
I117
sV\u5f98
p3523
I150
sV\u519c
p3524
I377
sV\u6a21
p3525
I46
sV\u8071
p3526
I1
sV\u82a6
p3527
I322
sV\u7eae
p3528
I14
sV\u8937
p3529
I21
sV\u4e39
p3530
I1855
sV\u66be
p3531
I43
sV\u7f43
p3532
I1
sV\u89cc
p3533
I47
sV\u6d4f
p3534
I3
sV\u4ece
p3535
I4054
sV\u6753
p3536
I33
sV\u9e59
p3537
I5
sV\u7fd8
p3538
I144
sV\u905d
p3539
I7
sV\u4f63
p3540
I17
sV\u6de4
p3541
I13
sV\u8669
p3542
I2
sV\u59ec
p3543
I205
sV\u9eee
p3544
I5
sV\u53f0
p3545
I3211
sV\u4ff8
p3546
I115
sV\u607d
p3547
I13
sV\u86fe
p3548
I408
sV\u9883
p3549
I5
sV\u5b85
p3550
I637
sV\u5189
p3551
I188
sV\u730a
p3552
I11
sV\u4f8d
p3553
I576
sV\u690e
p3554
I27
sV\u8093
p3555
I10
sV\u5d16
p3556
I442
sV\u961c
p3557
I77
sV\u8c20
p3558
I12
sV\u66a7
p3559
I59
sV\u8028
p3560
I18
sV\u5cab
p3561
I266
sV\u7430
p3562
I9
sV\u6838
p3563
I18
sV\u87bd
p3564
I5
sV\u663c
p3565
I682
sV\u5c40
p3566
I161
sV\u9546
p3567
I15
sV\u71c9
p3568
I1
sV\u5048
p3569
I97
sV\u4e4c
p3570
I795
sV\u94db
p3571
I40
sV\u7b5a
p3572
I3
sV\u715e
p3573
I8
sV\u6f62
p3574
I30
sV\u6566
p3575
I84
sV\u9e6c
p3576
I3
sV\u7aef
p3577
I794
sV\u5772
p3578
I1
sV\u9274
p3579
I244
sV\u62ff
p3580
I3
sV\u806a
p3581
I96
sV\u9b05
p3582
I2
sV\u7a84
p3583
I106
sV\u8511
p3584
I13
sV\u8315
p3585
I23
sV\u6294
p3586
I3
sV\u83aa
p3587
I2
sV\u5f2d
p3588
I40
sV\u5531
p3589
I598
sV\u61be
p3590
I5
sV\u90c8
p3591
I1
sV\u53ca
p3592
I1222
sV\u84d0
p3593
I11
sV\u6053
p3594
I18
sV\u82d4
p3595
I1287
sV\u9959
p3596
I1
sV\u525f
p3597
I1
sV\u8d61
p3598
I9
sV\u6ce0
p3599
I323
sV\u60e8
p3600
I320
sV\u99ee
p3601
I4
sV\u6979
p3602
I129
sV\u8bfa
p3603
I80
sV\u81fe
p3604
I151
sV\u5c81
p3605
I2655
sV\u9787
p3606
I2
sV\u7406
p3607
I903
sV\u8d8b
p3608
I505
sV\u720a
p3609
I1
sV\u680e
p3610
I18
sV\u6612
p3611
I1
sV\u5c16
p3612
I56
sV\u9918
p3613
I1
sV\u971c
p3614
I2729
sV\u7f2c
p3615
I24
sV\u94b1
p3616
I679
sV\u7530
p3617
I1655
sV\u51b3
p3618
I200
sV\u7334
p3619
I46
sV\u6938
p3620
I1
sV\u7cc1
p3621
I12
sV\u9e42
p3622
I74
sV\u5148
p3623
I2117
sV\u6ecd
p3624
I1
sV\u884e
p3625
I3
sV\u56dd
p3626
I5
sV\u705e
p3627
I238
sV\u89e3
p3628
I1402
sV\u626a
p3629
I70
sV\u7bef
p3630
I1
sV\u9570
p3631
I11
sV\u65fb
p3632
I36
sV\u877c
p3633
I30
sV\u7d80
p3634
I2
sV\u7b84
p3635
I1
sV\u9009
p3636
I226
sV\u8e0d
p3637
I1
sV\u6f8c
p3638
I46
sV\u8411
p3639
I2
sV\u6590
p3640
I18
sV\u8215
p3641
I1
sV\u9a9a
p3642
I286
sV\u6029
p3643
I3
sV\u5e2d
p3644
I765
sV\u9b2f
p3645
I20
sV\u8f37
p3646
I1
sV\u853b
p3647
I24
sV\u7943
p3648
I2
sV\u9bc4
p3649
I1
sV\u7747
p3650
I39
sV\u54c6
p3651
I5
sV\u6d4b
p3652
I132
sV\u85d0
p3653
I6
sV\u5f57
p3654
I20
sV\u79d8
p3655
I189
sV\u77dc
p3656
I221
sV\u8c61
p3657
I781
sVi
p3658
I10
sV\u7471
p3659
I3
sV\u7275
p3660
I616
sV\u6879
p3661
I5
sV\u80fe
p3662
I1
sV\u5f81
p3663
I1547
sV\u5389
p3664
I50
sV\u6512
p3665
I204
sV\u2014
p3666
I2676
sV\u7c97
p3667
I141
sV\u769b
p3668
I12
sV\u591a
p3669
I6414
sV\u8e20
p3670
I10
sV\u52b3
p3671
I1278
sV\u91b5
p3672
I6
sV\u7034
p3673
I1
sV\u8bb9
p3674
I44
sV\u7fc1
p3675
I787
sV\u79c5
p3676
I1
sV\u73c9
p3677
I20
sV\u914a
p3678
I50
sV\u67d1
p3679
I11
sV\u9cd7
p3680
I2
sV\u795a
p3681
I105
sV\u4fe1
p3682
I1589
sV\u84e7
p3683
I7
sV\u7eeb
p3684
I35
sV\u6cf7
p3685
I39
sV\u4f76
p3686
I6
sV\u847c
p3687
I1
sV\u5a03
p3688
I108
sV\u4e0b
p3689
I7154
sV\u6c8c
p3690
I24
sV\u8711
p3691
I1
sV\u6690
p3692
I3
sV\u6094
p3693
I167
sV\u7b19
p3694
I524
sV\u939e
p3695
I2
sV\u8da2
p3696
I1
sV\u5d2d
p3697
I15
sV\u75b2
p3698
I226
sV\u8c37
p3699
I1264
sV\u6fb6
p3700
I14
sV\u803f
p3701
I287
sV\u63be
p3702
I67
sV\u5dc2
p3703
I9
sV\u57c6
p3704
I1
sV\u6e4b
p3705
I15
sV\u51ca
p3706
I4
sV\u6253
p3707
I202
sV\u80d4
p3708
I1
sV\u955d
p3709
I30
sV\u74dc
p3710
I167
sV\u8369
p3711
I2
sV\u62e8
p3712
I159
sV\u56f0
p3713
I238
sV\u95f2
p3714
I4616
sV\u50f4
p3715
I2
sV\u89fa
p3716
I2
sV\u5885
p3717
I60
sV\u8f8b
p3718
I10
sV\u8393
p3719
I165
sV\u6412
p3720
I5
sV\u5e16
p3721
I82
sV\u9b18
p3722
I5
sV\u951c
p3723
I4
sV\u719f
p3724
I474
sV\u8f20
p3725
I2
sV\u6ba3
p3726
I1
sV\u65a7
p3727
I134
sV\u8328
p3728
I72
sV\u9cad
p3729
I9
sV\u7d2c
p3730
I1
sV\u90b5
p3731
I42
sV\u6b38
p3732
I7
sV\u7ec1
p3733
I24
sV\u5f40
p3734
I7
sV\u78c5
p3735
I4
sV\u5944
p3736
I25
sV\u9646
p3737
I411
sV\u5348
p3738
I254
sV\u60d5
p3739
I51
sV\u4ee1
p3740
I2
sV\u8be3
p3741
I58
sV\u6666
p3742
I201
sV\u606a
p3743
I4
sV\u79ef
p3744
I868
sV\u9174
p3745
I4
sV\u6df7
p3746
I171
sV\u8b78
p3747
I1
sV\u61ff
p3748
I44
sV\u7984
p3749
I356
sV\u5507
p3750
I93
sV\u4f0b
p3751
I3
sV\u8c0d
p3752
I7
sV\u6d8c
p3753
I121
sV\u6790
p3754
I53
sV\u8015
p3755
I620
sV\u6194
p3756
I231
sV\u9e96
p3757
I2
sV\u7a19
p3758
I2
sV\u5b98
p3759
I1975
sV\u559c
p3760
I1273
sV\u6e21
p3761
I833
sV\u4fa0
p3762
I113
sV\u80aa
p3763
I5
sV\u5631
p3764
I26
sV\u8d37
p3765
I20
sV\u6eb6
p3766
I107
sV\u873b
p3767
I33
sV\u6f4b
p3768
I49
sV\u8dcc
p3769
I15
sV\u7bd8
p3770
I9
sV\u575b
p3771
I527
sV\u515f
p3772
I4
sV\u6fe0
p3773
I27
sV\u8865
p3774
I182
sV\u94f2
p3775
I6
sV\u7075
p3776
I1855
sV\u6a79
p3777
I46
sV\u647d
p3778
I12
sV\u82fe
p3779
I8
sV\u8302
p3780
I282
sV\u6a87
p3781
I2
sV\u520c
p3782
I1
sV\u9b12
p3783
I6
sV\u5e14
p3784
I51
sV\u8297
p3785
I12
sV\u7624
p3786
I6
sV\u9aa7
p3787
I62
sV\u7c28
p3788
I3
sV\u822c
p3789
I212
sV\u69b1
p3790
I11
sV\u75b9
p3791
I9
sV\u573a
p3792
I465
sV\u8dc9
p3793
I1
sV\u754e
p3794
I22
sV\u7b52
p3795
I54
sV\u62d7
p3796
I22
sV\u6edf
p3797
I143
sV\u8d5e
p3798
I94
sV\u74e3
p3799
I5
sV\u5664
p3800
I13
sV\u80eb
p3801
I18
sV\u626c
p3802
I800
sV\u6101
p3803
I4203
sV\u6705
p3804
I33
sV\u300b
p3805
I722
sV\u558e
p3806
I1
sV\u9890
p3807
I94
sV\u7f15
p3808
I249
sV\u679a
p3809
I60
sV\u6d9e
p3810
I1
sV\u73a2
p3811
I6
sV\u602b
p3812
I1
sV\u662f
p3813
I6255
sV\u85ae
p3814
I49
sV\u8bb2
p3815
I198
sV\u7237
p3816
I19
sV\u54b8
p3817
I377
sV\u783b
p3818
I14
sV\u7e3f
p3819
I4
sV\u72cc
p3820
I1
sV\u5951
p3821
I238
sV\u78d0
p3822
I10
sV\u5f55
p3823
I153
sV\u6559
p3824
I1213
sV\u7765
p3825
I31
sV\u5fea
p3826
I2
sV\u8f75
p3827
I2
sV\u5e7f
p3828
I620
sV\u8202
p3829
I118
sV\u6b87
p3830
I15
sV\u8e0a
p3831
I32
sV\u530c
p3832
I1
sV\u5910
p3833
I19
sV\u6518
p3834
I30
sV\u8f9f
p3835
I318
sV\u5ca9
p3836
I1325
sV\u8930
p3837
I120
sV\u6eb5
p3838
I1
sV\u8f34
p3839
I2
sV\u9538
p3840
I23
sV\u9b3c
p3841
I495
sV\u5c3e
p3842
I356
sV\u80c1
p3843
I17
sV\u51cb
p3844
I376
sV\u6e4a
p3845
I1
sV\u57cf
p3846
I17
sV\u9ed5
p3847
I2
sVV
p3848
I7
sV\u69db
p3849
I448
sV\u865a
p3850
I1876
sV\u5764
p3851
I324
sV\u9e6a
p3852
I25
sV\u8df3
p3853
I127
sV\u6f74
p3854
I6
sV\u7578
p3855
I2
sV\u7b7c
p3856
I13
sV\u6001
p3857
I388
sV\u6c09
p3858
I1
sV\u548e
p3859
I23
sV\u7811
p3860
I11
sV\u5a92
p3861
I200
sV\u6096
p3862
I9
sV\u4f1f
p3863
I20
sV\u9021
p3864
I85
sV\u7eaa
p3865
I264
sV\u672f
p3866
I310
sV\u6d33
p3867
I10
sV\u7337
p3868
I104
sV\u8543
p3869
I170
sV\u67c4
p3870
I122
sV\u6dc8
p3871
I2
sV\u914b
p3872
I11
sV\u524d
p3873
I5626
sV\u5851
p3874
I2
sV\u5e55
p3875
I590
sV\u7fd4
p3876
I329
sV\u8bdc
p3877
I19
sV\u9de8
p3878
I1
sV\u5eea
p3879
I33
sV\u8871
p3880
I3
sV\u5377
p3881
I1269
sV\u9a7d
p3882
I47
sV\u8102
p3883
I127
sV\u4e08
p3884
I536
sV\u970e
p3885
I16
sV\u5c14
p3886
I1392
sV\u681c
p3887
I1
sV\u7424
p3888
I21
sV\u98a7
p3889
I1
sV\u6db5
p3890
I155
sV\u8c34
p3891
I32
sV\u79bd
p3892
I713
sV\u83c1
p3893
I23
sV\u6b46
p3894
I49
sV\u52cb
p3895
I241
sV\u6d4a
p3896
I273
sV\u91cd
p3897
I4502
sV\u774e
p3898
I5
sV\u5ed3
p3899
I138
sV\u9dd5
p3900
I4
sV\u8356
p3901
I1
sV\u9162
p3902
I6
sV\u5e68
p3903
I8
sV\u82eb
p3904
I15
sV\u606c
p3905
I69
sV\u6c74
p3906
I71
sV\u57f9
p3907
I23
sV\u7678
p3908
I6
sV\u9afb
p3909
I174
sV\u787c
p3910
I1
sV\u9cff
p3911
I5
sV\u6301
p3912
I1053
sV\u6f09
p3913
I58
sV\u7b11
p3914
I2142
sV\u9a90
p3915
I57
sV\u5992
p3916
I202
sV\u9c94
p3917
I10
sV\u6396
p3918
I177
sV\u9525
p3919
I56
sV\u7ba6
p3920
I5
sV\u87ae
p3921
I16
sV\u7a3b
p3922
I252
sV\u7c3f
p3923
I101
sV\u4f49
p3924
I1
sV\u6ec8
p3925
I1
sV\u514d
p3926
I447
sV\u5b51
p3927
I25
sV\u9e53
p3928
I129
sV\u5d55
p3929
I2
sV\u6759
p3930
I2
sV\u695d
p3931
I3
sV\u4fde
p3932
I7
sV\u7565
p3933
I279
sV\u94e4
p3934
I2
sV\u7f69
p3935
I37
sV\u816d
p3936
I1
sV\u67ee
p3937
I4
sV\u4e73
p3938
I217
sV\u69f2
p3939
I12
sV\u8d75
p3940
I260
sV\u5077
p3941
I335
sV\u75fa
p3942
I4
sV\u997d
p3943
I2
sV\u5c7f
p3944
I157
sV\u7ffe
p3945
I29
sV\u6987
p3946
I11
sV\u738b
p3947
I3216
sV\u8c0a
p3948
I7
sV\u758f
p3949
I1810
sV\u960e
p3950
I48
sV\u5d14
p3951
I228
sV\u6718
p3952
I1
sV\u8d9f
p3953
I1
sV\u52a1
p3954
I175
sV\u54a5
p3955
I2
sV\u7f28
p3956
I354
sV\u60ad
p3957
I17
sV\u8d34
p3958
I30
sV\u5236
p3959
I309
sV\u9738
p3960
I166
sV\u543a
p3961
I2
sV\u6042
p3962
I14
sV\u53cb
p3963
I536
sV\u6c4a
p3964
I2
sV\u9ad1
p3965
I9
sV\u8256
p3966
I2
sV\u6bdb
p3967
I705
sV\u845a
p3968
I4
sV\u5360
p3969
I371
sV\u77e3
p3970
I337
sV\u79e7
p3971
I12
sV\u8ff3
p3972
I2
sV\u6d74
p3973
I189
sV\u56f9
p3974
I13
sV\u797c
p3975
I11
sV\u6405
p3976
I46
sV\u8584
p3977
I1330
sV\u8f88
p3978
I272
sV\u700d
p3979
I18
sV\u7a11
p3980
I1
sV\u6296
p3981
I9
sV\u8619
p3982
I1
sV\u649a
p3983
I30
sV\u5723
p3984
I1553
sV\u5927
p3985
I3069
sV\u7aa6
p3986
I125
sV\u9e29
p3987
I8
sV\u632b
p3988
I28
sV\u7caa
p3989
I33
sV\u652f
p3990
I427
sV\u6f33
p3991
I134
sV\u94ba
p3992
I82
sV\u9ebe
p3993
I134
sV\u65c4
p3994
I142
sV\u4e49
p3995
I554
sV\u954f
p3996
I2
sV\u5a51
p3997
I3
sV\u5c55
p3998
I459
sV\ue85d
p3999
I25
sV\u89dc
p4000
I79
sV\u4ede
p4001
I155
sV\u7261
p4002
I154
sV\u95e4
p4003
I9
sV\u5ae6
p4004
I50
sVm
p4005
I11
sV\u4f73
p4006
I1002
sV\u5177
p4007
I194
sV\u987d
p4008
I137
sV\u7efe
p4009
I44
sV\u8702
p4010
I197
sV\u748b
p4011
I32
sV\u7893
p4012
I20
sV\u4f9d
p4013
I2046
sV\u90a3
p4014
I887
sV\u53a5
p4015
I103
sV\u9ea7
p4016
I1
sV\u59a9
p4017
I6
sV\u67ad
p4018
I57
sV\u6bb5
p4019
I126
sV\u5536
p4020
I2
sV\u71b9
p4021
I3
sV\u9038
p4022
I510
sV\u533a
p4023
I249
sV\u7fbd
p4024
I1447
sV\u85c1
p4025
I20
sV\u6742
p4026
I517
sV\u83c5
p4027
I14
sV\u4ec7
p4028
I88
sV\u6d46
p4029
I166
sV\u89c9
p4030
I1732
sV\u6b4a
p4031
I18
sV\u97cd
p4032
I1
sV\u714e
p4033
I172
sV\u8556
p4034
I62
sV\u6cdb
p4035
I823
sV\u835a
p4036
I35
sV\u895e
p4037
I22
sV\u9762
p4038
I1138
sV\u7ee7
p4039
I307
sV\u666c
p4040
I4
sV\u82ef
p4041
I1
sV\u6c70
p4042
I16
sV\u88f3
p4043
I517
sV\u96f7
p4044
I720
sV\u51f9
p4045
I5
sV\u7078
p4046
I9
sV\u5ffd
p4047
I2015
sV\u9aff
p4048
I1
sV\u8480
p4049
I2
sV\u8284
p4050
I1
sV\u8888
p4051
I50
sV\u9c90
p4052
I4
sV\u5f92
p4053
I1465
sV\u6596
p4054
I1
sV\u699e
p4055
I1
sV\u9521
p4056
I365
sV\u77a2
p4057
I6
sV\u5e27
p4058
I1
sV\u7da6
p4059
I16
sV\u7baa
p4060
I20
sV\u6833
p4061
I4
sV\u7a3f
p4062
I7
sV\u8043
p4063
I10
sV\u62c4
p4064
I65
sV\u8e47
p4065
I168
sV\u924f
p4066
I17
sV\u5b55
p4067
I35
sV\u80d8
p4068
I1
sV\u94e0
p4069
I2
sV\u5de6
p4070
I389
sV\u98e8
p4071
I42
sV\u9179
p4072
I24
sV\u5a7f
p4073
I97
sV\u79fe
p4074
I75
sV\u8c06
p4075
I7
sV\u758b
p4076
I1
sV\u9e12
p4077
I1
sV\u8797
p4078
I5
sV\u8b9f
p4079
I4
sV\u54a1
p4080
I1
sV\u58a9
p4081
I7
sV\u6cb1
p4082
I47
sV\u8d30
p4083
I29
sV\u4e32
p4084
I9
sV\u70b9
p4085
I803
sV\u523a
p4086
I333
sV\u7ebd
p4087
I21
sV\u84c1
p4088
I7
sV\u96cd
p4089
I152
sV\u59d3
p4090
I449
sV\u825a
p4091
I3
sV\u4f5c
p4092
I3545
sV\u9662
p4093
I605
sV\u5364
p4094
I43
sV\u89f3
p4095
I6
sV\u6809
p4096
I47
sV\u629a
p4097
I259
sV\u8e1d
p4098
I1
sV\u5f27
p4099
I50
sV\u652b
p4100
I29
sV\u632f
p4101
I417
sV\u80ae
p4102
I6
sV\u7737
p4103
I188
sV\u5fbc
p4104
I96
sV\u98be
p4105
I4
sV\u63c4
p4106
I21
sV\u564d
p4107
I1
sV\u5c51
p4108
I98
sV\u5a55
p4109
I18
sV\u6059
p4110
I12
sV\u8fdc
p4111
I5742
sV\u95e0
p4112
I7
sV\u56e2
p4113
I375
sV\u5ce6
p4114
I146
sV\u7869
p4115
I1
sV\u5aea
p4116
I3
sV\u60ee
p4117
I74
sV\u5777
p4118
I4
sV\u74f6
p4119
I293
sV\u72fa
p4120
I8
sV\u78fe
p4121
I1
sV\u6283
p4122
I31
sV\u6c87
p4123
I1
sV\u768b
p4124
I259
sV\u890a
p4125
I21
sV\u540c
p4126
I4387
sV\u5e10
p4127
I652
sV\u9d12
p4128
I39
sV\u6218
p4129
I1078
sV\u57a1
p4130
I2
sV\u7620
p4131
I12
sV\u51a5
p4132
I929
sV\u9ca7
p4133
I5
sV\u65ad
p4134
I2409
sV\u5b3e
p4135
I1
sV\u6f46
p4136
I2
sV\u8bc9
p4137
I103
sV\u56cb
p4138
I5
sV\u95cd
p4139
I10
sV\u50cf
p4140
I152
sV\u5ad3
p4141
I1
sV\u64d7
p4142
I3
sV\u996a
p4143
I4
sV\u80ef
p4144
I8
sV\u4ff1
p4145
I652
sV\u6874
p4146
I26
sV\u53f9
p4147
I1039
sV\u7278
p4148
I6
sV\u9efb
p4149
I14
sV\u5dfd
p4150
I3
sV\u8680
p4151
I53
sV\u8084
p4152
I1
sV\u750d
p4153
I46
sV\u7f11
p4154
I59
sV\u5d92
p4155
I9
sV\u9894
p4156
I61
sV\u8319
p4157
I2
sV\u4e1b
p4158
I789
sV\u8d1d
p4159
I97
sV\u75a2
p4160
I1
sV\u5c27
p4161
I461
sV\u662b
p4162
I1
sV\u602f
p4163
I189
sV\u97b6
p4164
I7
sV\u7e3b
p4165
I19
sV\u91ba
p4166
I75
sV\u66c0
p4167
I6
sV\u60c4
p4168
I3
sV\u964b
p4169
I100
sV\u904f
p4170
I46
sV\u7ed0
p4171
I3
sV\u5955
p4172
I84
sV\u78d4
p4173
I19
sV\u7761
p4174
I496
sV\u96e0
p4175
I91
sV\u55e2
p4176
I9
sV\u90e4
p4177
I8
sV\u8975
p4178
I1
sV\u5477
p4179
I6
sV\u77f6
p4180
I122
sV\u5e7b
p4181
I66
sV\u587f
p4182
I7
sV\u7bfe
p4183
I10
sV\u8e06
p4184
I2
sV\u778b
p4185
I16
sV\u718f
p4186
I164
sV\u7b93
p4187
I86
sV\u5914
p4188
I72
sV\u8f9b
p4189
I509
sV\u7720
p4190
I1124
sV\u50a5
p4191
I104
sV\u64ad
p4192
I98
sV\u852c
p4193
I167
sV\u6eb1
p4194
I8
sV\u68b5
p4195
I191
sV\u8934
p4196
I4
sV\u5636
p4197
I372
sV\u72b9
p4198
I3616
sV\u503a
p4199
I54
sV\u7cbd
p4200
I7
sV\u9d3c
p4201
I1
sV\u86c1
p4202
I1
sV\u57cb
p4203
I327
sV\u94cd
p4204
I5
sV\u51cf
p4205
I310
sV\u9ed1
p4206
I498
sV\u5bd3
p4207
I112
sV\u98d5
p4208
I102
sV\u65d7
p4209
I863
sV\u6fdb
p4210
I333
sV\u805a
p4211
I410
sV\u69df
p4212
I9
sV\u5760
p4213
I373
sV\u73e3
p4214
I3
sV\u9e66
p4215
I212
sV\u87eb
p4216
I1
sV\u656c
p4217
I223
sV\u8bf3
p4218
I9
sV\u95f7
p4219
I116
sV\u8780
p4220
I22
sV\u6005
p4221
I1066
sV\u4e86
p4222
I438
sV\u9994
p4223
I59
sV\u6696
p4224
I1201
sV\u4f1b
p4225
I14
sV\u609a
p4226
I11
sV\u6a9e
p4227
I2
sV\u9621
p4228
I71
sV\u5323
p4229
I279
sV\u5d27
p4230
I3
sV\u7ea6
p4231
I322
sV\u672b
p4232
I300
sV\u78aa
p4233
I2
sV\u612f
p4234
I2
sV\u82ae
p4235
I7
sV\u7537
p4236
I294
sV\u96b6
p4237
I39
sV\u90ba
p4238
I73
sV\u793f
p4239
I4
sV\u8343
p4240
I19
sV\u8d47
p4241
I1
sV\u83d8
p4242
I5
sV\u6c5d
p4243
I446
sV\u8ddc
p4244
I2
sV
p4245
I612
sV\u54e2
p4246
I16
sV\u846d
p4247
I150
sV\u62ee
p4248
I1
sV\u5f7b
p4249
I348
sV\u9c7d
p4250
I1
sV\u6c83
p4251
I127
sV\u8106
p4252
I63
sV\u870a
p4253
I4
sV\u809b
p4254
I2
sV\u7428
p4255
I15
sV0
p4256
I8
sV\u5f3a
p4257
I694
sV\u553e
p4258
I41
sV\u89c1
p4259
I7871
sV\u8fc5
p4260
I44
sV\u6146
p4261
I2
sV\u85c9
p4262
I227
sV\u91d1
p4263
I6516
sV\u54d3
p4264
I7
sV\u7352
p4265
I7
sV\u60db
p4266
I8
sV\u855e
p4267
I1
sV\u5860
p4268
I2
sV\u9166
p4269
I4
sV\u5468
p4270
I860
sV\u6070
p4271
I100
sV\u6674
p4272
I1614
sV\u6901
p4273
I4
sV\u6509
p4274
I1
sV\u9a8c
p4275
I72
sV\u9694
p4276
I1559
sV\u6996
p4277
I1
sV\u831d
p4278
I11
sV\u77aa
p4279
I17
sV\u6e2f
p4280
I5
sV\u83b2
p4281
I1097
sV\u7a37
p4282
I113
sV\u5ac8
p4283
I1
sV\u5cb8
p4284
I1518
sV\u52bc
p4285
I2
sV\u763f
p4286
I20
sV\u68c0
p4287
I120
sV\u8247
p4288
I132
sV\u9e4f
p4289
I164
sV\u5151
p4290
I6
sV\u6d59
p4291
I84
sV\u4fda
p4292
I7
sV\u82dc
p4293
I18
sV\u7f65
p4294
I58
sV\u9ee4
p4295
I5
sV\u94e8
p4296
I13
sV\u6dee
p4297
I540
sV\u63f2
p4298
I6
sV\u5a77
p4299
I42
sV\u507b
p4300
I16
sV\u75fe
p4301
I19
sV\u6387
p4302
I74
sV\u8006
p4303
I60
sV\u798b
p4304
I69
sV\u879f
p4305
I11
sV\u5ea5
p4306
I2
sV\u7f24
p4307
I21
sV\u54a9
p4308
I2
sV\u7528
p4309
I1369
sV\u60b1
p4310
I4
sV\u8130
p4311
I7
sV\u66b5
p4312
I3
sV\u8734
p4313
I8
sV\u7cb9
p4314
I18
sV\u543e
p4315
I1772
sV\u88c1
p4316
I424
sV\u84c9
p4317
I427
sV\u59cb
p4318
I1669
sV\u5fcf
p4319
I9
sV\u90d1
p4320
I215
sV\u7252
p4321
I29
sV\u96d5
p4322
I595
sV\u6bd7
p4323
I56
sV\u5960
p4324
I149
sV\u5f64
p4325
I125
sV\u89eb
p4326
I6
sV\u966a
p4327
I444
sV\u6170
p4328
I260
sV\u6774
p4329
I2
sV\u7d78
p4330
I1
sV\u6e05
p4331
I7345
sV\u8f84
p4332
I61
sV\u6409
p4333
I1
sV\u7a0d
p4334
I374
sV\u7011
p4335
I243
sV\u9190
p4336
I30
sV\u7615
p4337
I2
sV\u9794
p4338
I2
sV\u8c19
p4339
I118
sV\u649e
p4340
I39
sV\u9e25
p4341
I404
sV\u76aa
p4342
I19
sV\u8d43
p4343
I3
sV\u4e45
p4344
I2019
sV\u8347
p4345
I54
sV\u7bcc
p4346
I36
sV\u71d0
p4347
I2
sV\u83dc
p4348
I95
sV\u50e6
p4349
I2
sV\u95e8
p4350
I6380
sV\u4f6f
p4351
I40
sV\u6cee
p4352
I22
sVq
p4353
I19
sV\u62f2
p4354
I2
sV\u517b
p4355
I623
sV\u7efa
p4356
I2
sV\u6e83
p4357
I20
sV\u8306
p4358
I34
sV\u7a8b
p4359
I2
sV\u580c
p4360
I1
sV\u9f0e
p4361
I500
sV\u7693
p4362
I256
sV\u8897
p4363
I1
sV\u601c
p4364
I2009
sV\u849f
p4365
I3
sV\u5ba1
p4366
I30
sV\u7a20
p4367
I110
sV\u57a9
p4368
I2
sV\u69ad
p4369
I153
sV\u8230
p4370
I21
sV\u7fb9
p4371
I92
sV\u9e38
p4372
I1
sV\u903c
p4373
I227
sV\u8bc1
p4374
I53
sV\u6942
p4375
I17
sV\u87c9
p4376
I4
sV\u4e58
p4377
I1333
sV\u62db
p4378
I566
sV\u8d5a
p4379
I15
sV\u5a60
p4380
I2
sV\u7ee3
p4381
I797
sV\u70e7
p4382
I717
sV\u5668
p4383
I274
sV\u956a
p4384
I5
sV\u6270
p4385
I249
sV\u6474
p4386
I7
sV\u51fd
p4387
I197
sV\u707c
p4388
I139
sV\u94ff
p4389
I79
sV\u6709
p4390
I12380
sV\u5192
p4391
I110
sV\u6b96
p4392
I7
sV\u811d
p4393
I1
sV\u679e
p4394
I4
sV\u9b21
p4395
I3
sV\u73a6
p4396
I16
sV\u6633
p4397
I3
sV\u5eb8
p4398
I102
sV\u723b
p4399
I6
sV\u9dba
p4400
I31
sV\u6cc4
p4401
I54
sVG
p4402
I13
sV\u66c8
p4403
I78
sV\u9c4f
p4404
I1
sV\u5351
p4405
I247
sV\u72d0
p4406
I212
sV\u615d
p4407
I12
sV\u80dc
p4408
I1556
sV\u7769
p4409
I3
sV\u96e8
p4410
I5797
sV\u896d
p4411
I4
sV\u6fee
p4412
I10
sV\u7dfa
p4413
I4
sV\u917d
p4414
I4
sV\u547f
p4415
I2
sV\u77fe
p4416
I1
sV\u8206
p4417
I345
sV\u5310
p4418
I12
sV\u9012
p4419
I330
sV\u6f18
p4420
I7
sV\u839b
p4421
I2
sV\u7b20
p4422
I79
sV\u7728
p4423
I1
sV\u68ad
p4424
I89
sV\u62b1
p4425
I772
sV\u5a36
p4426
I43
sV\u7eb9
p4427
I112
sV\u5c3a
p4428
I870
sV\u70bd
p4429
I31
sV\u4fc3
p4430
I464
sV\u6842
p4431
I1399
sV\u6246
p4432
I62
sV\u86c9
p4433
I2
sV\u644a
p4434
I5
sV\u98cd
p4435
I1
sV\u5dcf
p4436
I1
sV\u7052
p4437
I1
sV\u8c5a
p4438
I28
sV\u65df
p4439
I31
sV\u865e
p4440
I263
sV\u7fe3
p4441
I13
sV\u71e7
p4442
I30
sV\u5768
p4443
I1
sV\u8beb
p4444
I44
sV\u696c
p4445
I1
sV\u8def
p4446
I5450
sV\u6574
p4447
I215
sV\u99f7
p4448
I1
sV\u717c
p4449
I2
sV\u6c05
p4450
I43
sV\u8d84
p4451
I3
sV\u6609
p4452
I10
sV\u780d
p4453
I1
sV\u6c9a
p4454
I15
sV\u74aa
p4455
I3
sV\u80b2
p4456
I58
sV\u753f
p4457
I33
sV\u96be
p4458
I3912
sV\u6dc4
p4459
I17
sV\u8147
p4460
I1
sV\u67c8
p4461
I2
sV\u584d
p4462
I27
sV\u5251
p4463
I1597
sV\u9753
p4464
I18
sV\u5455
p4465
I18
sV\u75d4
p4466
I2
sV\u8fd8
p4467
I4818
sV\u7c65
p4468
I53
sV\u9de4
p4469
I1
sV\u6eee
p4470
I2
sV\u8475
p4471
I123
sV\u907d
p4472
I142
sV\u76fe
p4473
I4
sV\u6883
p4474
I2
sV\u6687
p4475
I301
sV\u5e0c
p4476
I279
sV\u5410
p4477
I403
sV\u829f
p4478
I29
sV\u7c20
p4479
I8
sV\u98a3
p4480
I10
sV\u5ba5
p4481
I21
sV\u96a7
p4482
I11
sV\u8e2c
p4483
I11
sV\u8234
p4484
I26
sV\u79b9
p4485
I269
sV\u77bd
p4486
I10
sV\u963c
p4487
I1
sV\u8dc1
p4488
I4
sV\u8bc5
p4489
I4
sV\u5ccb
p4490
I11
sV\u794e
p4491
I1
sV\u7752
p4492
I8
sV\u8d56
p4493
I300
sV\u62df
p4494
I622
sV\u5c60
p4495
I78
sV\u9566
p4496
I1
sV\u936a
p4497
I7
sV\u4fed
p4498
I102
sV\u6274
p4499
I1
sV\u59f9
p4500
I57
sV\u57fd
p4501
I1
sV\u6d01
p4502
I333
sV\u6109
p4503
I33
sV\u7511
p4504
I37
sV\u9490
p4505
I3
sV\u5792
p4506
I230
sV\u7315
p4507
I25
sV\u6b9a
p4508
I37
sV\u4eac
p4509
I996
sV\u6a2f
p4510
I142
sV\u6033
p4511
I32
sV\u56bc
p4512
I58
sV\u5f4d
p4513
I1
sV\u7ecc
p4514
I2
sV\u5551
p4515
I3
sV\u9053
p4516
I5756
sV\u5355
p4517
I314
sV\u88d8
p4518
I345
sV\u86dc
p4519
I1
sV\u7b65
p4520
I2
sV\u9ae4
p4521
I2
sV\u90e8
p4522
I209
sV\u53ea
p4523
I2013
sV\u8f6d
p4524
I8
sV\u69ee
p4525
I1
sV\u547b
p4526
I17
sV\u527f
p4527
I9
sV\u6787
p4528
I10
sV\u5510
p4529
I378
sV\u9612
p4530
I12
sV\u8f97
p4531
I34
sV\u859b
p4532
I60
sV\u7d20
p4533
I1186
sV\u50a9
p4534
I7
sV\u62b5
p4535
I139
sV\u503e
p4536
I1055
sV\u6446
p4537
I88
sV\u9ecd
p4538
I228
sV\u784e
p4539
I19
sV\u79e3
p4540
I55
sV\u9e62
p4541
I84
sV\u5b64
p4542
I2886
sV\u77e7
p4543
I17
sV\u5168
p4544
I885
sV\u8deb
p4545
I1
sV\u6f6c
p4546
I2
sV\u8bef
p4547
I330
sV\u6570
p4548
I1938
sV\u81f3
p4549
I2018
sV\u7978
p4550
I197
sV\u95fb
p4551
I4570
sV\u56fd
p4552
I2888
sV\u8188
p4553
I1
sV\u9f8c
p4554
I10
sV\u4f17
p4555
I879
sV\u8819
p4556
I2
sV\u7f1b
p4557
I15
sV\u7ea2
p4558
I4024
sV\u6d2b
p4559
I7
sV\u4fac
p4560
I78
sV\u753b
p4561
I1608
sV\u733f
p4562
I1233
sV\u90be
p4563
I1
sV\u6dc0
p4564
I7
sV\u8747
p4565
I102
sV\u7fcc
p4566
I3
sV\u9b4f
p4567
I299
sV\u87dc
p4568
I2
sV\u9de0
p4569
I1
sV\u54e6
p4570
I16
sV\u8e6d
p4571
I33
sV\u68ee
p4572
I302
sV\u8471
p4573
I161
sV\u66f2
p4574
I2436
sV\u5f77
p4575
I21
sV\u9879
p4576
I76
sV\u557b
p4577
I43
sV\u7afa
p4578
I73
sV\u537f
p4579
I588
sV\u4e00
p4580
I14827
sV\u6487
p4581
I17
sV\u810a
p4582
I28
sV\u788f
p4583
I1
sV\u5610
p4584
I5
sV\u9512
p4585
I3
sV\u5014
p4586
I7
sV\u869b
p4587
I1
sV\u641c
p4588
I250
sV\u5fa1
p4589
I987
sV\u7e20
p4590
I55
sV\u9aa3
p4591
I2
sV\u59a5
p4592
I18
sV\u94a7
p4593
I152
sV\u53a9
p4594
I46
sV\u7228
p4595
I45
sV\u6dad
p4596
I1
sV\u8c2c
p4597
I148
sV4
p4598
I10
sV\u593a
p4599
I235
sV\u75bd
p4600
I4
sV\u8fc1
p4601
I494
sV\u89c5
p4602
I326
sV\u6746
p4603
I7
sV\u83c9
p4604
I9
sV\u5ecb
p4605
I1
sV\u614a
p4606
I7
sV\u6cd7
p4607
I67
sV\u66db
p4608
I148
sV\u895a
p4609
I1
sV\u60df
p4610
I1158
sV\u835e
p4611
I6
sV\u9766
p4612
I6
sV\u916a
p4613
I16
sV\u88ef
p4614
I16
sV\u6670
p4615
I21
sV\u9cf7
p4616
I25
sV\u5bf9
p4617
I2214
sV\u7a78
p4618
I3
sV\u55fd
p4619
I6
sV\u90ff
p4620
I3
sV\u6905
p4621
I7
sV\u8884
p4622
I14
sV\u6309
p4623
I145
sV\u9690
p4624
I1555
sV\u7115
p4625
I68
sV\u639e
p4626
I15
sV\u5a23
p4627
I1
sV\u6e2b
p4628
I2
sV\u8bae
p4629
I198
sV\u5ab8
p4630
I18
sV\u6ec0
p4631
I1
sV\u62c8
p4632
I49
sV\u5d4d
p4633
I1
sV\u5751
p4634
I53
sV\u76d0
p4635
I137
sV\u5155
p4636
I31
sV\u6b59
p4637
I6
sV\u655d
p4638
I44
sV\u7f61
p4639
I6
sV\u9ee0
p4640
I35
sV\u5de2
p4641
I681
sV\u7965
p4642
I320
sV\u8d6d
p4643
I34
sV\u507f
p4644
I13
sV\u6b83
p4645
I31
sV\u8c02
p4646
I3
sV\u6587
p4647
I2801
sV\u798f
p4648
I310
sV\u7393
p4649
I3
sV\u8d97
p4650
I1
sV\u7f20
p4651
I160
sV\u52a9
p4652
I299
sV\u8d2c
p4653
I18
sV\u953c
p4654
I5
sV\u6c42
p4655
I1277
sV\u88c5
p4656
I237
sV\u9ccd
p4657
I6
sV\u7be3
p4658
I1
sV\u5368
p4659
I3
sV\u8feb
p4660
I122
sV\u89ef
p4661
I1
sV\u6770
p4662
I91
sV\u54fd
p4663
I4
sV\u6805
p4664
I26
sV\u5492
p4665
I32
sV\u841d
p4666
I574
sV\u9e21
p4667
I1029
sV\u7ca2
p4668
I24
sV\u5527
p4669
I62
sV\u76a6
p4670
I11
sV\u6f2b
p4671
I683
sV\u84b2
p4672
I469
sV\u5bb8
p4673
I242
sV\u6fc0
p4674
I390
sV\u7dcc
p4675
I20
sV\u77d0
p4676
I1
sV\u5055
p4677
I43
sV\u71d4
p4678
I15
sV\u4ed6
p4679
I1178
sV\u6a59
p4680
I24
sV\u8bd8
p4681
I40
sV\u645d
p4682
I1
sV\u85dc
p4683
I156
sV\u7269
p4684
I2247
sV\u8c6d
p4685
I1
sV\u8671
p4686
I37
sVu
p4687
I16
sV\u7ef6
p4688
I302
sV\u9a79
p4689
I74
sV\u577b
p4690
I20
sV\u7483
p4691
I94
sV\u6c93
p4692
I81
sV\u4e14
p4693
I1936
sV\u5599
p4694
I12
sV\u989b
p4695
I12
sV\u5b9d
p4696
I1022
sV\u9e9f
p4697
I284
sV\u6020
p4698
I15
sV\u73ad
p4699
I1
sV\u552e
p4700
I13
sV\u7fb5
p4701
I1
sV\u65b9
p4702
I3813
sV\u8438
p4703
I121
sV\u6bbd
p4704
I11
sV\u97c5
p4705
I1
sV\u5ac7
p4706
I1
sV\u7946
p4707
I7
sV\u89d1
p4708
I33
sV\u8fd5
p4709
I5
sV\u72d7
p4710
I80
sV\u5458
p4711
I60
sV\u7edf
p4712
I41
sV\u8966
p4713
I80
sV\u90eb
p4714
I2
sV\u8f6a
p4715
I2
sV\u59f1
p4716
I2
sV\u5ff5
p4717
I1221
sV\u82f7
p4718
I1
sV\u6478
p4719
I6
sV\u9080
p4720
I303
sV\u5382
p4721
I1
sV\u5986
p4722
I708
sV\u9c88
p4723
I87
sV\u5f8a
p4724
I184
sV\u6911
p4725
I5
sV\u6f15
p4726
I11
sV\u8e94
p4727
I24
sV\u5217
p4728
I782
sV\u9519
p4729
I200
sV\u581b
p4730
I1
sV\u9b1d
p4731
I2
sV\u5e1f
p4732
I27
sV\u63a2
p4733
I274
sV\u8725
p4734
I5
sV\u8d29
p4735
I16
sV\u52ac
p4736
I14
sV\u7c33
p4737
I8
sV\u6237
p4738
I1016
sV\u87ba
p4739
I40
sV\u8dbe
p4740
I55
sV\u5141
p4741
I26
sV\u7cc8
p4742
I3
sV\u804b
p4743
I45
sV\u62cc
p4744
I5
sV\u864f
p4745
I450
sV\u4f55
p4746
I11995
sV\u6ed4
p4747
I106
sV\u7559
p4748
I2629
sV\u94d8
p4749
I13
sV\u7b5d
p4750
I151
sV\u5dde
p4751
I1779
sV\u6765
p4752
I11962
sV\u86e4
p4753
I22
sV\u6d69
p4754
I562
sV\u8ce8
p4755
I6
sV\u4fea
p4756
I14
sV\u9971
p4757
I249
sV\u5c73
p4758
I1
sV\u7bf2
p4759
I10
sV\u7583
p4760
I1
sV\u5704
p4761
I14
sV\u9e0a
p4762
I19
sV\u840e
p4763
I52
sV\u6d93
p4764
I98
sV\u9397
p4765
I2
sV\u5499
p4766
I2
sV\u7518
p4767
I733
sV\u9f9f
p4768
I402
sV\u6120
p4769
I16
sV\u542e
p4770
I11
sV\u78b1
p4771
I1
sV\u5a32
p4772
I20
sV\u7eb5
p4773
I759
sV\u90c1
p4774
I510
sV\u7242
p4775
I8
sV\u96c5
p4776
I421
sV\u5bc7
p4777
I165
sV\u82cd
p4778
I2027
sV\u644e
p4779
I1
sV\u5558
p4780
I2
sV\u5b5c
p4781
I34
sV\u7fdf
p4782
I40
sV\u736c
p4783
I29
sV\u7f74
p4784
I41
sV\u6b7c
p4785
I16
sV\u5282
p4786
I2
sV\u7c09
p4787
I3
sV\u5e8a
p4788
I928
sV\u620d
p4789
I485
sV\u6811
p4790
I5179
sV\u8f94
p4791
I140
sV\u5317
p4792
I3238
sV\u5f1f
p4793
I586
sV\u62a2
p4794
I21
sV\u68a6
p4795
I3009
sV\u8c29
p4796
I217
sV\u6eaa
p4797
I2345
sV\u772f
p4798
I4
sV\u94ae
p4799
I2
sV\u80b6
p4800
I1
sV\u71c0
p4801
I3
sV\u9543
p4802
I4
sV\u9b47
p4803
I9
sV\u814b
p4804
I23
sV\u63cc
p4805
I1
sV\u69d0
p4806
I325
sV\u8d53
p4807
I21
sV\u50d6
p4808
I3
sV\u7459
p4809
I9
sV\u56da
p4810
I118
sV\u5cde
p4811
I2
sV\u6c69
p4812
I46
sV\u8de8
p4813
I94
sV\u516b
p4814
I1108
sV\u4eea
p4815
I472
sV\u576f
p4816
I4
sV\u74ee
p4817
I145
sV\u60f6
p4818
I41
sV\u8479
p4819
I4
sV\u4f7f
p4820
I1843
sV\u6cfe
p4821
I65
sV\u5200
p4822
I588
sV\u9102
p4823
I39
sV\u5404
p4824
I752
sV\u7887
p4825
I3
sV\u5e08
p4826
I1405
sV\u648f
p4827
I5
sV\u6e93
p4828
I2
sV\u8912
p4829
I86
sV\u9097
p4830
I6
sV\u9a9b
p4831
I37
sV\u9c9f
p4832
I1
sV\u6424
p4833
I1
sV\u572e
p4834
I7
sV\u7bb1
p4835
I98
sV\u67b9
p4836
I3
sV\u8638
p4837
I35
sV\u4f3e
p4838
I1
sV\u674e
p4839
I943
sV\u8bd1
p4840
I38
sV\u4ed3
p4841
I145
sV\u8dd5
p4842
I9
sV\u7cdf
p4843
I48
sV\u8b66
p4844
I106
sV\u8d6a
p4845
I45
sV\u51ed
p4846
I774
sV\u7a70
p4847
I54
sV\u9ef3
p4848
I8
sV\u7c74
p4849
I6
sV\u7f09
p4850
I43
sV\u9e88
p4851
I40
sV\u610d
p4852
I19
sV\u808c
p4853
I168
sV\u8c94
p4854
I53
sV\u7396
p4855
I9
sV\u9719
p4856
I4
sV\u759a
p4857
I7
sV\u7f9e
p4858
I533
sV\u6daa
p4859
I22
sV\u50ac
p4860
I766
sV\u742f
p4861
I28
sV\u97ae
p4862
I24
sV\u8fbe
p4863
I638
sV\u5341
p4864
I3413
sV\u5545
p4865
I13
sV\u7ec8
p4866
I2783
sV\u824b
p4867
I26
sV\u6ad0
p4868
I1
sV\u6cd4
p4869
I1
sV\u53d6
p4870
I1084
sV\u96d8
p4871
I13
sV\u795d
p4872
I206
sV\u8ee8
p4873
I1
sV\u916d
p4874
I1
sV\u77ee
p4875
I13
sV\u5e73
p4876
I3482
sV\u63f6
p4877
I15
sV\u8779
p4878
I2
sV\u65fa
p4879
I1
sV\u5300
p4880
I132
sV\u9002
p4881
I504
sV\u5f08
p4882
I21
sV\u589d
p4883
I1
sV\u791c
p4884
I1
sV\u6320
p4885
I33
sV\u4ea9
p4886
I182
sV\u70ad
p4887
I72
sV\u912c
p4888
I1
sV\u7ab1
p4889
I3
sV\u66b9
p4890
I1
sV\u4e3e
p4891
I892
sV\u57c3
p4892
I510
sV\u7042
p4893
I6
sV\u94c5
p4894
I173
sV\u7a46
p4895
I230
sV\u9ec9
p4896
I2
sV\u7c4a
p4897
I2
sV\u9e5e
p4898
I11
sV\u67e3
p4899
I1
sVb
p4900
I70
sV\u8c6a
p4901
I373
sV\u50ed
p4902
I16
sV\u95ef
p4903
I6
sV\u5af1
p4904
I6
sV\u7b70
p4905
I2
sV\u8bfb
p4906
I451
sV\u697c
p4907
I3796
sV\u7405
p4908
I135
sV\u5c8a
p4909
I2
sV\u600d
p4910
I3
sVB
p4911
I10
sV\u5117
p4912
I6
sV\u9619
p4913
I1185
sV\u749a
p4914
I2
sV\u5d1f
p4915
I7
sV\u60a2
p4916
I7
sV\u8425
p4917
I743
sV\u732b
p4918
I13
sV\u6caa
p4919
I2
sV\u51ac
p4920
I551
sV\u752f
p4921
I17
sV\u96ae
p4922
I4
sV\u5bb0
p4923
I260
sV\u6b3b
p4924
I59
sV\u84ba
p4925
I16
sV\u6d3f
p4926
I6
sV\u5241
p4927
I1
sV\u73c0
p4928
I42
sV\u9743
p4929
I10
sV\u6bd0
p4930
I1
sV\u8f53
p4931
I16
sV\u52d6
p4932
I19
sV\u785d
p4933
I1
sV\u5ede
p4934
I1
sV\u85e4
p4935
I353
sV\u8fe8
p4936
I31
sV\u536b
p4937
I281
sV\u906d
p4938
I258
sV\u76ee
p4939
I1068
sV\u9a71
p4940
I731
sV\u78f2
p4941
I1
sV\u62f6
p4942
I7
sV\u8679
p4943
I307
sV\u887d
p4944
I17
sV\u9702
p4945
I8
sV\u628f
p4946
I1
sV\u6893
p4947
I66
sV\u9697
p4948
I38
sV\u5199
p4949
I424
sV\u9c9b
p4950
I67
sV\u8ea7
p4951
I7
sV\u962c
p4952
I1
sV\u7bb5
p4953
I5
sV\u8038
p4954
I199
sV\u8e3c
p4955
I1
sV\u99c9
p4956
I4
sV\u614e
p4957
I140
sV\u8dd1
p4958
I8
sV\u8bd5
p4959
I536
sV\u76d7
p4960
I152
sV\u7adf
p4961
I833
sV\u60e3
p4962
I2
sV\u8d66
p4963
I39
sV\u94eb
p4964
I3
sV\u57ed
p4965
I4
sV\u5df1
p4966
I439
sV\u7a74
p4967
I329
sV\u86f7
p4968
I1
sV\u6078
p4969
I87
sV\u5782
p4970
I2200
sV\u9888
p4971
I91
sV\u670d
p4972
I610
sV\u868c
p4973
I47
sV\u6d11
p4974
I11
sV\u8c90
p4975
I9
sV\u9119
p4976
I118
sV\u5a1f
p4977
I269
sV\u8521
p4978
I108
sV\u67a2
p4979
I90
sV\u4e27
p4980
I205
sV\u6da6
p4981
I358
sV\u742b
p4982
I1
sV\u6baa
p4983
I3
sV\u56ac
p4984
I86
sV\u91ae
p4985
I49
sV\u6637
p4986
I1
sV\u85b6
p4987
I1
sV\u83ba
p4988
I1022
sV\u5541
p4989
I15
sV\u74c0
p4990
I1
sV\u72c4
p4991
I51
sV\u9e47
p4992
I13
sV\u5949
p4993
I599
sV\u78c8
p4994
I3
sV\u66cc
p4995
I1
sV\u6cd0
p4996
I2
sV\u7f5d
p4997
I19
sV\u9edc
p4998
I40
sV\u59de
p4999
I1
sV\u84e0
p5000
I35
sV\u6969
p5001
I4
sV\u88e8
p5002
I31
sV\u546b
p5003
I2
sV\u526f
p5004
I54
sV\u71ee
p5005
I16
sV\u65f6
p5006
I11072
sV\u8179
p5007
I233
sV\u8f7d
p5008
I1029
sV\u9602
p5009
I9
sV\u5304
p5010
I5
sV\u658b
p5011
I794
sV\u9a0a
p5012
I2
sV\u800e
p5013
I1
sV\u7118
p5014
I6
sV\u7f1c
p5015
I3
sV\u6324
p5016
I4
sV\u502e
p5017
I1
sV\u7cb1
p5018
I89
sV\u8138
p5019
I209
sV\u6ebd
p5020
I10
sV\u8f3c
p5021
I5
sV\u8034
p5022
I1
sV\u94c1
p5023
I345
sV\u98c9
p5024
I1
sV\u7a4a
p5025
I2
sV\u77d7
p5026
I19
sV\u8662
p5027
I25
sV\u56ed
p5028
I1843
sV\u776c
p5029
I2
sV\u7b74
p5030
I1
sV\u8dfb
p5031
I97
sV\u6f7c
p5032
I37
sV\u7809
p5033
I10
sV\u9988
p5034
I36
sV\u878c
p5035
I1
sV\u6c11
p5036
I357
sV\u4e92
p5037
I126
sV\u6a15
p5038
I6
sV\u5d1b
p5039
I8
sV\u8225
p5040
I1
sV\u4f27
p5041
I10
sV\u6ca6
p5042
I236
sV\u752b
p5043
I113
sV\u90ae
p5044
I62
sV\u5db0
p5045
I6
sV\u5bb4
p5046
I800
sV\u6d3b
p5047
I193
sV\u88be
p5048
I2
sV\u9143
p5049
I1
sV\u5849
p5050
I2
sV\u79c8
p5051
I1
sV\u834f
p5052
I26
sV\u6bd4
p5053
I843
sV\u6869
p5054
I5
sV\u536f
p5055
I33
sV\u5973
p5056
I1933
sV\u9a75
p5057
I1
sVy
p5058
I18
sV\u5a08
p5059
I21
sV\u830e
p5060
I240
sV\u4e10
p5061
I3
sV\u9497
p5062
I290
sV\u9e9b
p5063
I17
sV\u7c1c
p5064
I1
sV\u989f
p5065
I1
sV\u6620
p5066
I1282
sV\u82a3
p5067
I3
sV\u532e
p5068
I20
sV\u8238
p5069
I94
sV\u52c3
p5070
I40
sV\u794a
p5071
I2
sV\u634e
p5072
I27
sV\u8fd1
p5073
I2459
sV\u6d52
p5074
I11
sV\u9756
p5075
I49
sV\u7edb
p5076
I275
sV\u62e3
p5077
I47
sV\u8f66
p5078
I2017
sV\u90ef
p5079
I2
sV\u5ff1
p5080
I3
sV\u7701
p5081
I544
sV\u5582
p5082
I24
sV\u9a88
p5083
I39
sV\u598a
p5084
I1
sV\u8e90
p5085
I1
sV\u5e1b
p5086
I154
sV\u8721
p5087
I137
sV\u762b
p5088
I1
sV\u54ac
p5089
I36
sV\u702f
p5090
I1
sV\u7a33
p5091
I215
sV\u6e3b
p5092
I1
sV\u81ba
p5093
I131
sV\u8bbe
p5094
I180
sV\u5145
p5095
I166
sVO
p5096
I6
sV\u4f51
p5097
I13
sV\u51da
p5098
I1
sV\u9cdc
p5099
I7
sV\u5bde
p5100
I601
sV\u6761
p5101
I1161
sV\u6165
p5102
I2
sV\u80e4
p5103
I24
sV\u4fe6
p5104
I136
sV\u566b
p5105
I28
sV\u73ee
p5106
I223
sV\u9f71
p5107
I1
sV\u9975
p5108
I137
sV\u6bfe
p5109
I2
sV\u5700
p5110
I1
sV\u7383
p5111
I7
sV\u678b
p5112
I5
sV\u4f10
p5113
I195
sV\u8c12
p5114
I340
sV\u7318
p5115
I4
sV\u9f9b
p5116
I84
sV\u5c9d
p5117
I3
sV\u6124
p5118
I114
sV\u522e
p5119
I40
sV\u7eb1
p5120
I331
sV\u9934
p5121
I1
sV\u62b9
p5122
I26
sV\u8338
p5123
I135
sV\u6cbd
p5124
I160
sV\u8d3c
p5125
I193
sV\u96c1
p5126
I1935
sV\u90c5
p5127
I10
sV\u5dc7
p5128
I22
sV\u784a
p5129
I1
sV\u84cd
p5130
I22
sV\u624e
p5131
I6
sV\u88d5
p5132
I15
sV\u75d7
p5133
I3
sV\u7fdb
p5134
I104
sV\u79df
p5135
I60
sV\u63e3
p5136
I9
sV\u97eb
p5137
I9
sV\u54ed
p5138
I568
sV\u756c
p5139
I42
sV\u6d7c
p5140
I8
sV\u89ff
p5141
I5
sV\u7601
p5142
I13
sV\u5482
p5143
I4
sV\u9184
p5144
I2
sV\u5e86
p5145
I363
sV\u6e11
p5146
I9
sV\u8f90
p5147
I5
sV\u7696
p5148
I6
sV\u5f1b
p5149
I17
sV\u7a9e
p5150
I3
sV\u712f
p5151
I3
sV\u92ae
p5152
I155
sV\u7b33
p5153
I260
sV\u9cb2
p5154
I32
sV\u6f3b
p5155
I4
sV\u80ba
p5156
I80
sV\u693f
p5157
I33
sV\u8abe
p5158
I6
sV\u5a49
p5159
I96
sV\u65cc
p5160
I875
sV\u69d4
p5161
I19
sV\u7259
p5162
I298
sV\u50da
p5163
I95
sV\u7c5d
p5164
I13
sV\u6661
p5165
I29
sV\u87e0
p5166
I156
sV\u576b
p5167
I1
sV\u72ee
p5168
I18
sV\u5b73
p5169
I10
sV\u4f7b
p5170
I1
sV\u60fa
p5171
I9
sV\u8c7d
p5172
I1
sV\u5408
p5173
I1917
sV\u9a97
p5174
I1
sV\u5d99
p5175
I18
sV\u909b
p5176
I78
sV\u539d
p5177
I2
sV\u969f
p5178
I2
sV\u4fa5
p5179
I7
sV\u6e24
p5180
I51
sV\u7bad
p5181
I404
sV\u77b5
p5182
I1
sV\u9634
p5183
I2852
sV\u4f3a
p5184
I26
sV\u823c
p5185
I3
sV\u52c7
p5186
I144
sV\u7146
p5187
I1
sV\u95c9
p5188
I31
sV\u8bcd
p5189
I765
sV\u6d4e
p5190
I500
sV\u81d1
p5191
I3
sV\u70db
p5192
I826
sV\u525c
p5193
I12
sV\u76df
p5194
I47
sV\u955e
p5195
I49
sV\u6ce3
p5196
I575
sV\u9eef
p5197
I131
sV\u7070
p5198
I400
sV\u627c
p5199
I17
sV\u9880
p5200
I6
sV\u7f05
p5201
I111
sV\u9488
p5202
I107
sV\u6715
p5203
I11
sV\u7996
p5204
I5
sV\u6ba2
p5205
I16
sV\u67aa
p5206
I94
sV\u7e2f
p5207
I2
sV\u7433
p5208
I35
sV\u603b
p5209
I378
sV\u5941
p5210
I35
sV\u7ec4
p5211
I174
sV\u8453
p5212
I5
sV\u735d
p5213
I3
sV\u92dc
p5214
I1
sV\u586b
p5215
I128
sV\u9171
p5216
I12
sV\u5473
p5217
I416
sV\u9a02
p5218
I16
sV\u5f04
p5219
I717
sV\u7387
p5220
I110
sV\u9006
p5221
I142
sV\u960a
p5222
I120
sV\u6593
p5223
I21
sV\u8212
p5224
I369
sV\u529d
p5225
I494
sV\u731c
p5226
I138
sV\u979f
p5227
I2
sV\u6920
p5228
I11
sV\u8da3
p5229
I330
sV\u4ea5
p5230
I31
sV\u2026
p5231
I3
sV\u7aad
p5232
I5
sV\u70b1
p5233
I3
sV\u5232
p5234
I3
sV\u6cb9
p5235
I153
sV\u8d38
p5236
I9
sV\u4e3a
p5237
I9247
sV\u62bd
p5238
I249
sV\u98c1
p5239
I1
sV\u5dc3
p5240
I4
sV\u53c7
p5241
I7
sV\u94c9
p5242
I11
sV\u4fcf
p5243
I1
sV\u5d58
p5244
I93
sV\u9e5a
p5245
I40
sV\u535c
p5246
I246
sVf
p5247
I62
sV\u5aed
p5248
I4
sV\u95f3
p5249
I4
sV\u8bf7
p5250
I415
sV\u6d78
p5251
I220
sV\u81fb
p5252
I36
sV\u9980
p5253
I2439
sV\u9f84
p5254
I131
sV\u7409
p5255
I90
sV\u9588
p5256
I8
sV\u6615
p5257
I7
sV\u511b
p5258
I1
sV\u7e9a
p5259
I4
sV\u571f
p5260
I1012
sV\u749e
p5261
I57
sV\u8821
p5262
I99
sV\u8e25
p5263
I1
sV\u60a6
p5264
I142
sV\u7f2f
p5265
I24
sV\u51b0
p5266
I1029
sV\u7533
p5267
I173
sV\u6b37
p5268
I13
sV\u613b
p5269
I1
sV\u673f
p5270
I2
sV\u79c0
p5271
I509
sV\u5e45
p5272
I69
sV\u75c8
p5273
I5
sV\u894b
p5274
I1
sV\u67d4
p5275
I274
sV\u58d6
p5276
I31
sV\u725d
p5277
I12
sV\u6861
p5278
I181
sV\u8fe4
p5279
I180
sV\u6469
p5280
I141
sV\u85e8
p5281
I2
sV\u596b
p5282
I8
sV\u9a6d
p5283
I198
sV\u5f6f
p5284
I5
sV\u72f2
p5285
I2
sV\u9675
p5286
I1850
sV\u8c79
p5287
I143
sV\u5a00
p5288
I1
sV\u5c04
p5289
I457
sV\u5608
p5290
I50
sV\u9897
p5291
I61
sV\u5f99
p5292
I57
sV\u701c
p5293
I1
sV\u949f
p5294
I1312
sV\u6c24
p5295
I59
sV\u6628
p5296
I795
sV\u5f2e
p5297
I2
sV\u75b5
p5298
I50
sV\u6fb9
p5299
I436
sV\u8e38
p5300
I2
sV\u9dc5
p5301
I1
sV\u50c7
p5302
I1
sV\u6f4e
p5303
I4
sV\u83d1
p5304
I17
sV\u85d5
p5305
I123
sV\u505c
p5306
I534
sV\u74df
p5307
I3
sV\u975e
p5308
I3160
sV\u60e7
p5309
I149
sV\u8366
p5310
I17
sV\u9aeb
p5311
I13
sV\u786c
p5312
I17
sV\u53f1
p5313
I60
sV\u96f3
p5314
I53
sV\u82fb
p5315
I9
sV\u607c
p5316
I133
sV\u84ff
p5317
I17
sV\u9a80
p5318
I43
sV\u5982
p5319
I8471
sV\u5386
p5320
I695
sV\u7709
p5321
I985
sV\u9688
p5322
I127
sV\u690d
p5323
I206
sV\u6311
p5324
I103
sV\u6515
p5325
I4
sV\u9f19
p5326
I158
sV\u521b
p5327
I73
sV\u541f
p5328
I2902
sV\u8d25
p5329
I196
sV\u8729
p5330
I25
sV\u7633
p5331
I11
sV\u91b2
p5332
I14
sV\u6837
p5333
I120
sV\u8bb6
p5334
I148
sV\u4eb8
p5335
I23
sV\u8dba
p5336
I7
sV\u87be
p5337
I2
sV\u9e43
p5338
I92
sV\u9047
p5339
I839
sV\u76c8
p5340
I719
sV\u8653
p5341
I5
sV\u7f59
p5342
I1
sV\u9ed8
p5343
I321
sV\u90dc
p5344
I2
sV\u57de
p5345
I1
sV\u6d65
p5346
I23
sV\u996d
p5347
I312
sV\u5c6f
p5348
I170
sV\u7fee
p5349
I186
sV\u9575
p5350
I3
sV\u8f79
p5351
I8
sV\u7187
p5352
I3
sV\u5708
p5353
I5
sV\u6b8b
p5354
I2306
sV\u6793
p5355
I1
sV\u8012
p5356
I29
sV\u9997
p5357
I1
sV\u5e99
p5358
I553
sV\u7f18
p5359
I1080
sV\u939b
p5360
I2
sV\u711c
p5361
I4
sV\u959f
p5362
I72
sV\u6b20
p5363
I87
sV\u8fa3
p5364
I1
sV\u6728
p5365
I2139
sV\u992c
p5366
I2
sV\u5fc3
p5367
I8854
sV\u9cc5
p5368
I7
sV\u96c9
p5369
I196
sV\u744a
p5370
I3
sV\u6e4e
p5371
I10
sV\u82d1
p5372
I800
sV\u6052
p5373
I177
sV\u5f58
p5374
I4
sV\u515c
p5375
I20
sV\u75df
p5376
I2
sV\u8862
p5377
I314
sV\u97f3
p5378
I1232
sV\u7574
p5379
I123
sV\u6f78
p5380
I62
sV\u85ff
p5381
I54
sV\u7609
p5382
I1
sV\u9788
p5383
I1
sV\u4e8e
p5384
I1604
sV\u6211
p5385
I5358
sV\u7a96
p5386
I4
sV\u901d
p5387
I184
sV\u769e
p5388
I8
sV\u4f23
p5389
I3
sV\u68a2
p5390
I170
sV\u8c25
p5391
I13
sV\u8629
p5392
I16
sV\u7d2f
p5393
I470
sV\u633b
p5394
I1
sV\u653f
p5395
I468
sV\u5c45
p5396
I2248
sV\u69cc
p5397
I26
sV\u8d4f
p5398
I866
sV\u63d0
p5399
I321
sV\u5ad6
p5400
I63
sV\u7e59
p5401
I3
sV\u91dc
p5402
I16
sV\u56de
p5403
I4950
sV\u6a61
p5404
I27
sV\u8be0
p5405
I15
sV\u5d6f
p5406
I81
sV\u7eee
p5407
I739
sV\u5773
p5408
I24
sV\u66fe
p5409
I2248
sV\u5a04
p5410
I32
sV\u7687
p5411
I1433
sV\u890e
p5412
I3
sV\u8712
p5413
I8
sV\u5999
p5414
I427
sV\u6028
p5415
I795
sV\u9e2c
p5416
I32
sV\u592e
p5417
I202
sV\u863c
p5418
I33
sV\u7f42
p5419
I25
sV\u8fcd
p5420
I28
sV\u85d1
p5421
I1
sV\u5858
p5422
I695
sV\u68e3
p5423
I52
sV\u836a
p5424
I46
sV\u5fed
p5425
I3
sV\u9aef
p5426
I122
sV\u7470
p5427
I70
sV\u53f5
p5428
I10
sV\u7274
p5429
I7
sV\u8ef7
p5430
I1
sV\u667c
p5431
I17
sV\u5f82
p5432
I89
sV\u9a84
p5433
I246
sV\u7109
p5434
I356
sV\u9088
p5435
I124
sV\u8490
p5436
I15
sV\u7d96
p5437
I4
sV\u541b
p5438
I9015
sV\u8d21
p5439
I165
sV\u8b25
p5440
I2
sV\u63aa
p5441
I22
sV\u97b2
p5442
I31
sV\u8bba
p5443
I1075
sV\u623f
p5444
I818
sV\u9647
p5445
I520
sV\u5149
p5446
I4575
sV\u70c8
p5447
I196
sV\u4f4d
p5448
I377
sV\u64d0
p5449
I11
sVS
p5450
I5
sV\u62d4
p5451
I217
sV\u98d8
p5452
I1365
sV\u6d61
p5453
I1
sV\u6b65
p5454
I1489
sV\u8979
p5455
I2
sV\u9e02
p5456
I59
sV\u6193
p5457
I1
sV\u5899
p5458
I623
sV\u6b24
p5459
I45
sV\u7ead
p5460
I16
sV\u9f2c
p5461
I1
sV\u582e
p5462
I1
sV\u5632
p5463
I58
sV\u7e42
p5464
I2
sV\u9ac5
p5465
I9
sV\u57c7
p5466
I1
sV\u684e
p5467
I8
sV\u84d1
p5468
I103
sV\u6652
p5469
I60
sV\u82d5
p5470
I39
sV\u5958
p5471
I1
sV\u75db
p5472
I155
sV\u8e62
p5473
I2
sV\u67e7
p5474
I1
sV\u8ff7
p5475
I1032
sV\u6978
p5476
I36
sV\u85fb
p5477
I296
sV\u677c
p5478
I67
sV\u7c01
p5479
I3
sV\u5486
p5480
I23
sV\u6e0d
p5481
I45
sV\u6215
p5482
I2
sV\u8394
p5483
I1
sV\u5f17
p5484
I23
sV\u8c21
p5485
I1
sV\u6ea2
p5486
I150
sV\u64a6
p5487
I2
sV\u7d2b
p5488
I2136
sV\u7b2f
p5489
I2
sV\u653b
p5490
I91
sV\u80be
p5491
I2
sV\u8d4b
p5492
I757
sV\u4e4d
p5493
I479
sV\u65d0
p5494
I33
sV\u8153
p5495
I14
sV\u7859
p5496
I1
sV\u5ada
p5497
I1
sV\u6c61
p5498
I160
sV\u8be4
p5499
I24
sV\u6069
p5500
I1960
sV\u5d6b
p5501
I11
sV\u9e6d
p5502
I417
sV\u5173
p5503
I2662
sV\u76f2
p5504
I28
sV\u4f77
p5505
I1
sV\u6afa
p5506
I1
sV\u867d
p5507
I1568
sV\u7a83
p5508
I116
sV\u9d02
p5509
I27
sV\u5804
p5510
I1
sV\u7487
p5511
I36
sV\u9706
p5512
I57
sV\u5208
p5513
I37
sV\u688f
p5514
I9
sV\u6293
p5515
I7
sV\u5b99
p5516
I90
sV\u559d
p5517
I26
sV\u6e20
p5518
I266
sV\u4f36
p5519
I64
sV\u65bd
p5520
I359
sV\u843c
p5521
I155
sV\u54c7
p5522
I5
sV\u7746
p5523
I5
sV\u4ecb
p5524
I103
sV\u714a
p5525
I1
sV\u7cd7
p5526
I3
sV\u9f56
p5527
I1
sV\u76db
p5528
I837
sV\u545c
p5529
I196
sV\u70df
p5530
I5142
sV\u4e60
p5531
I240
sV\u8d62
p5532
I67
sV\u9eeb
p5533
I1
sV\u816a
p5534
I1
sV\uff01
p5535
I26
sV\u5d82
p5536
I233
sV\u9884
p5537
I121
sV\u5786
p5538
I93
sV\u8c8c
p5539
I358
sV\u6115
p5540
I8
sV\u7f96
p5541
I7
sV\u9b19
p5542
I1
sV\u501f
p5543
I647
sV\u739e
p5544
I1
sV\u8925
p5545
I35
sV\u61aa
p5546
I1
sV\u782f
p5547
I4
sV\u603f
p5548
I7
sV\u7ec0
p5549
I30
sV\u5945
p5550
I1
sV\u5349
p5551
I74
sV\u72c8
p5552
I12
sV\u8e4b
p5553
I169
sV\u6ccc
p5554
I4
sV\u8253
p5555
I6
sV\u60d4
p5556
I2
sV\u5fd6
p5557
I6
sV\u9ad8
p5558
I7026
sV\u59da
p5559
I92
sV\u94dc
p5560
I445
sV\u6965
p5561
I2
sV\u88e4
p5562
I1
sV\u6369
p5563
I14
sV\u7bee
p5564
I46
sV\u5f00
p5565
I5164
sV\u5904
p5566
I6303
sV\u9606
p5567
I66
sV\u5308
p5568
I63
sV\u900a
p5569
I14
sV\u9d97
p5570
I25
sV\u751c
p5571
I26
sV\u4ea1
p5572
I410
sV\u6f20
p5573
I598
sV\u8ba3
p5574
I2
sV\u6924
p5575
I1
sV\u6328
p5576
I5
sV\u76b1
p5577
I25
sV\u9730
p5578
I148
sV\u853c
p5579
I169
sV\u9ec1
p5580
I3
sV\u4fcb
p5581
I2
sV\u704a
p5582
I3
sV\u6a4e
p5583
I1
sV\u86d1
p5584
I2
sV\u6452
p5585
I2
sV\u9e56
p5586
I13
sV\u5b58
p5587
I636
sV\u77db
p5588
I66
sV\u555c
p5589
I28
sV\u4f60
p5590
I33
sV\u8c62
p5591
I8
sV\u65e7
p5592
I3720
sVj
p5593
I12
sV\u5ced
p5594
I146
sV\u50f5
p5595
I25
sV\u7174
p5596
I4
sV\u8df7
p5597
I1
sV\u9f80
p5598
I2
sV\u5c82
p5599
I2470
sV\u6c0d
p5600
I6
sV\u6015
p5601
I267
sV\u8e21
p5602
I5
sV\u7f2b
p5603
I8
sV\u7333
p5604
I1
sV\u94b2
p5605
I17
sV\u613f
p5606
I1476
sV\u82be
p5607
I3
sV\u7fc0
p5608
I1
sV\u9b43
p5609
I3
sV\u9547
p5610
I297
sV\u5249
p5611
I8
sV\u73c8
p5612
I2
sV\u67d0
p5613
I1
sV\u61d4
p5614
I8
sV\u5ed6
p5615
I4
sV\u745d
p5616
I1
sV\u6865
p5617
I1133
sV\u6269
p5618
I1
sV\u5373
p5619
I1187
sV\u9075
p5620
I98
sV\u8a79
p5621
I13
sV\u68fa
p5622
I27
sV\u62fe
p5623
I215
sV\u6000
p5624
I1884
sV\u568f
p5625
I2
sV\u9991
p5626
I2
sV\u6599
p5627
I220
sV\u871a
p5628
I5
sV\u8d1e
p5629
I426
sV\u77a5
p5630
I61
sV\u5624
p5631
I27
sV\u9926
p5632
I1
sV\u5c28
p5633
I2
sV\u86af
p5634
I8
sV\u6b32
p5635
I4836
sV\u4fb5
p5636
I884
sV\u7136
p5637
I3033
sV\u773a
p5638
I163
sV\u5bbd
p5639
I318
sV\ue4c3
p5640
I1
sV\u76cf
p5641
I92
sV\u9e54
p5642
I13
sV\u6458
p5643
I254
sV\u8bdd
p5644
I498
sV\u5ae7
p5645
I1
sV\u63ed
p5646
I80
sV\u69f1
p5647
I4
sV\u75f9
p5648
I5
sV\u977a
p5649
I5
sV\u8403
p5650
I23
sV\u8a07
p5651
I11
sV\u6986
p5652
I243
sV\u900b
p5653
I54
sV\u530d
p5654
I11
sV\u960f
p5655
I12
sV\u5f15
p5656
I1106
sV\u6e1f
p5657
I8
sV\u90a0
p5658
I10
sV\u53a2
p5659
I20
sV\u96a4
p5660
I7
sV\u5faa
p5661
I155
sV\u832d
p5662
I15
sV\u62ac
p5663
I39
sV\u68b0
p5664
I7
sV\u8f35
p5665
I1
sV\u6eb4
p5666
I1
sV\u5237
p5667
I56
sV\u9539
p5668
I1
sV\u83c2
p5669
I5
sV\u89c6
p5670
I388
sV\u6d49
p5671
I1
sV\u734d
p5672
I3
sV\u7f55
p5673
I49
sV\u8257
p5674
I1
sV\u67da
p5675
I52
sV\u79e6
p5676
I1770
sV\u5d69
p5677
I347
sV\u666f
p5678
I1980
sV\u88f0
p5679
I1
sV\u7277
p5680
I13
sV\u51f6
p5681
I143
sV\u94f8
p5682
I119
sV\u57fa
p5683
I147
sV\u5dfe
p5684
I545
sV\u6100
p5685
I10
sV\u6704
p5686
I1
sV\u8c89
p5687
I7
sV\u928d
p5688
I1
sV\u9891
p5689
I1066
sV\u5d93
p5690
I11
sV\u7f14
p5691
I14
sV\u8c1e
p5692
I1
sV\u9e2a
p5693
I121
sV\u87af
p5694
I19
sV\u8db3
p5695
I1708
sV\u4eb5
p5696
I3
sV\u65c3
p5697
I78
sV\u8d48
p5698
I4
sV\u71cb
p5699
I17
sV\u6b5c
p5700
I2
sV\u4fdf
p5701
I81
sV\u90e1
p5702
I950
sV\u7160
p5703
I1
sV\u55e3
p5704
I99
sV\u62ed
p5705
I117
sV\u68f1
p5706
I158
sV\u5578
p5707
I367
sV\u7afd
p5708
I47
sV\u8b07
p5709
I23
sV\u520d
p5710
I75
sV\u970f
p5711
I342
sV\u748e
p5712
I7
sV\u5811
p5713
I63
sV\u7a92
p5714
I4
sV\u5e15
p5715
I14
sV\u5eaa
p5716
I1
sV\u63ac
p5717
I57
sV\u69b0
p5718
I2
sV\u8e35
p5719
I21
sV\u6fb4
p5720
I1
sV\u6041
p5721
I4
sV\u6645
p5722
I1
sV\u88c6
p5723
I6
sV\u6c49
p5724
I2850
sV\u724d
p5725
I34
sV\u53cc
p5726
I2361
sV\u94ce
p5727
I42
sV\u59d0
p5728
I2
sV\u66da
p5729
I4
sV\u6cde
p5730
I14
sV\u9563
p5731
I1
sV\u72e2
p5732
I1
sV\u5c69
p5733
I8
sV\u7eea
p5734
I213
sV\u676f
p5735
I1471
sV\u89f0
p5736
I1
sV\u56fa
p5737
I461
sV\u7f7f
p5738
I1
sV\u8585
p5739
I5
sV\u8f89
p5740
I671
sV\u918d
p5741
I33
sV\u700c
p5742
I1
sV\u548f
p5743
I721
sV\u5e93
p5744
I58
sV\u851a
p5745
I42
sV\u5220
p5746
I13
sV\u9122
p5747
I11
sV\u75a5
p5748
I3
sV\u5e28
p5749
I2
sV\u84af
p5750
I10
sV\u672e
p5751
I42
sV\u6932
p5752
I1
sV\u753a
p5753
I6
sV\u8e48
p5754
I64
sV\u574e
p5755
I86
sV\u7ed3
p5756
I1430
sV\u876e
p5757
I8
sV\u77f9
p5758
I6
sV\u79fd
p5759
I41
sV\u9f7e
p5760
I4
sV\u6b86
p5761
I9
sV\u4f09
p5762
I7
sV\u920b
p5763
I2
sV\u778e
p5764
I3
sV\u9e13
p5765
I2
sV\u6017
p5766
I2
sV\u6a1b
p5767
I13
sV\u889c
p5768
I72
sV\u51a2
p5769
I200
sV\u94a4
p5770
I12
sV\u7827
p5771
I264
sV\u5ba6
p5772
I385
sV\u9ea8
p5773
I2
sV\u5daa
p5774
I8
sV\u60ac
p5775
I1052
sV\u4e33
p5776
I2
sV\u8d35
p5777
I1391
sV\u6cb4
p5778
I25
sV\u9739
p5779
I55
sV\u5c3f
p5780
I1
sV\u81c2
p5781
I170
sV\u6545
p5782
I3037
sV\u8bc6
p5783
I1556
sV\u97ce
p5784
I1
sV\u7b51
p5785
I249
sVW
p5786
I5
sV\u63d6
p5787
I149
sV\u6fde
p5788
I4
sV\u7be6
p5789
I19
sV\u5f69
p5790
I1118
sV\u626b
p5791
I706
sV\u53f6
p5792
I3476
sV\u5ffe
p5793
I2
sV\u538b
p5794
I390
sV\u710c
p5795
I1
sV\u9a91
p5796
I1338
sV\u7b10
p5797
I1
sV\u9c95
p5798
I2
sV\u841a
p5799
I1
sV\u8e1e
p5800
I31
sV\u5320
p5801
I116
sV\u9022
p5802
I2682
sV\u5524
p5803
I215
sV\u7ea9
p5804
I24
sV\u5f28
p5805
I1
sV\u83ab
p5806
I3718
sV\u85af
p5807
I2
sV\u6832
p5808
I6
sV\u91b7
p5809
I1
sV\u7236
p5810
I445
sV\u8340
p5811
I72
sV\u914c
p5812
I448
sV\u75cf
p5813
I7
sV\u564e
p5814
I14
sV\u86d9
p5815
I76
sV\u7360
p5816
I7
sV\u7564
p5817
I13
sV\u9ee9
p5818
I21
sV\u7f68
p5819
I19
sV\u60ed
p5820
I820
sV\u866e
p5821
I7
sV\u8872
p5822
I149
sV\u9e7e
p5823
I1
sV\u8703
p5824
I57
sV\u4e09
p5825
I5915
sV\u500d
p5826
I195
sV\u768e
p5827
I427
sV\u5a11
p5828
I61
sV\u9f13
p5829
I1086
sV\u6117
p5830
I1
sV\u6d1f
p5831
I9
sV\u95a4
p5832
I64
sV\u7927
p5833
I6
sV\u61ac
p5834
I3
sV\u6db4
p5835
I16
sV\u5d3f
p5836
I40
sV\u6241
p5837
I236
sV\u6445
p5838
I35
sV\u51cc
p5839
I756
sV\u96ce
p5840
I5
sV\u7a51
p5841
I42
sV\u5bd0
p5842
I236
sV\u98d2
p5843
I339
sV\u8157
p5844
I1
sV\u62d6
p5845
I82
sV\u8d5f
p5846
I1
sV\u6ede
p5847
I363
sV\u5261
p5848
I128
sV\u9967
p5849
I18
sV\u7ae6
p5850
I44
sV\u81ec
p5851
I4
sV\u8bf0
p5852
I49
sVR
p5853
I6
sV\u54fa
p5854
I43
sV\u99fc
p5855
I2
sV\u6400
p5856
I6
sV\u8385
p5857
I14
sV\u6808
p5858
I118
sV\u548b
p5859
I5
sV\u978d
p5860
I321
sV\u5893
p5861
I153
sV\u7a14
p5862
I47
sV\u4e1c
p5863
I5339
sV\u5420
p5864
I87
sV\u9722
p5865
I9
sV\u5224
p5866
I89
sV\u79a9
p5867
I1
sV\u5fbd
p5868
I153
sV\u793e
p5869
I368
sV\u8244
p5870
I1
sV\u6ec7
p5871
I8
sV\u964c
p5872
I713
sV\u78d3
p5873
I2
sV\u5f52
p5874
I8099
sV\u9a54
p5875
I9
sV\u8fdd
p5876
I411
sV\u6e5c
p5877
I11
sV\u816e
p5878
I38
sV\u6df1
p5879
I5266
sV\u8f72
p5880
I34
sV\u6bf5
p5881
I48
sV\u5e7c
p5882
I84
sV\u997e
p5883
I2
sV\u8003
p5884
I103
sV\u6b8a
p5885
I843
sV\u8098
p5886
I69
sV\u6c1b
p5887
I367
sV\u6a1f
p5888
I21
sV\u7023
p5889
I22
sV\u57a2
p5890
I70
sV\u5baa
p5891
I123
sV\u8d31
p5892
I475
sV\u9139
p5893
I1
sVK
p5894
I9
sV\u774d
p5895
I2
sV\u91ce
p5896
I2892
sV\u7b55
p5897
I1
sV\u5ad4
p5898
I52
sV\u65d6
p5899
I17
sV\u4f5d
p5900
I1
sV\u8a5f
p5901
I3
sV\u9063
p5902
I571
sV\u77e2
p5903
I56
sV\u9e67
p5904
I121
sV\u7bea
p5905
I22
sV\u8af4
p5906
I5
sV\u90f8
p5907
I82
sV\u7c7b
p5908
I291
sV\u9efc
p5909
I20
sV\u7a7f
p5910
I637
sV\u6500
p5911
I829
sV\u558b
p5912
I5
sV\u968d
p5913
I29
sV\u9c91
p5914
I2
sV\u5993
p5915
I206
sV\u9a95
p5916
I11
sV\u7b14
p5917
I774
sV\u5520
p5918
I8
sV\u7436
p5919
I104
sV\u783e
p5920
I55
sV\u8344
p5921
I8
sV\u73cf
p5922
I1
sV\u504e
p5923
I41
sV\u9b54
p5924
I77
sV\u80d9
p5925
I9
sV\u6f5c
p5926
I633
sV\u5fe7
p5927
I1375
sV\u66ed
p5928
I1
sVn
p5929
I11
sV\u6cf1
p5930
I38
sV\u8e72
p5931
I50
sV\u70f9
p5932
I175
sV\u5178
p5933
I229
sV\u7efd
p5934
I102
sV\u5f7c
p5935
I503
sV\u987e
p5936
I1133
sV\u6682
p5937
I1062
sV\u6c86
p5938
I27
sV\u950b
p5939
I181
sV\u930f
p5940
I2
sV\u708e
p5941
I442
sV\u5c11
p5942
I2907
sV\u6717
p5943
I203
sV\u2019
p5944
I1
sV\u8198
p5945
I6
sV\u6d1b
p5946
I1253
sV\u8f9c
p5947
I86
sV\u7f27
p5948
I21
sV\u99a8
p5949
I228
sV\u5aaa
p5950
I9
sV\u8c31
p5951
I34
sV\u6bb4
p5952
I3
sV\u71b8
p5953
I1
sV\u9e3d
p5954
I43
sV\u5b3f
p5955
I1
sV\u6849
p5956
I1
sV\u90ce
p5957
I1384
sV\u5bd4
p5958
I4
sV\u8757
p5959
I26
sV\u8d5b
p5960
I50
sV\u62da
p5961
I5
sV\u4e5d
p5962
I2499
sV\u9163
p5963
I303
sV\u5265
p5964
I62
sV\u7ce6
p5965
I4
sV\u4ef2
p5966
I273
sV\u8bf4
p5967
I1272
sV\u52fa
p5968
I24
sV\u9f91
p5969
I2
sV\u7814
p5970
I64
sV\u811a
p5971
I212
sV\u6d9d
p5972
I3
sV\u9522
p5973
I8
sV\u7ba9
p5974
I3
sV\u80af
p5975
I728
sV\u6d32
p5976
I1025
sV\u7736
p5977
I2
sV\u9ebb
p5978
I290
sV\u7b3e
p5979
I27
sVD
p5980
I4
sV\u4f46
p5981
I1100
sV\u8a48
p5982
I6
sV\u534e
p5983
I3179
sV\u6258
p5984
I424
sV\u8ddd
p5985
I39
sV\u6c5c
p5986
I25
sV\u97e1
p5987
I1
sV\u52e3
p5988
I2
sV\u65ed
p5989
I102
sV\u4e70
p5990
I466
sV\u9776
p5991
I4
sV\u5278
p5992
I9
sV\u917a
p5993
I29
sV\u5c7c
p5994
I5
sV\u960b
p5995
I1
sV\u900f
p5996
I214
sV\u738e
p5997
I2
sV\u5f11
p5998
I1
sV\u5915
p5999
I2097
sV\u681f
p6000
I2
sV\u7223
p6001
I4
sV\u55a2
p6002
I2
sV\u7c27
p6003
I59
sV\u9aa8
p6004
I1074
sV\u59aa
p6005
I13
sV\u8935
p6006
I21
sV\u68b4
p6007
I2
sV\u5437
p6008
I1
sV\u5e3b
p6009
I43
sV\u7cbc
p6010
I10
sV\u6145
p6011
I3
sV\u6b49
p6012
I10
sV\u89ca
p6013
I11
sV\u7f51
p6014
I445
sV\u8457
p6015
I1267
sV\u67d6
p6016
I1
sV\u5761
p6017
I96
sV\u5165
p6018
I5403
sV\u7fe6
p6019
I144
sV\u5b69
p6020
I43
sV\u84ec
p6021
I1101
sV\u606f
p6022
I1123
sV\u88f4
p6023
I436
sV\u7e7b
p6024
I24
sV\u51fa
p6025
I5518
sV\u8681
p6026
I173
sV\u6700
p6027
I860
sV\u8a89
p6028
I67
sV\u578b
p6029
I1
sV\u518f
p6030
I13
sV\u9e91
p6031
I11
sV\u5b93
p6032
I22
sV\u8616
p6033
I23
sV\u5720
p6034
I3
sV\u9e26
p6035
I310
sV\u87ab
p6036
I8
sV\u622e
p6037
I53
sV\u8bb3
p6038
I40
sV\u6c32
p6039
I206
sV\u703a
p6040
I3
sV\u8740
p6041
I18
sV\u63c3
p6042
I1
sV\u6dc7
p6043
I41
sV\u8b48
p6044
I1
sV\u8036
p6045
I146
sV\u954c
p6046
I48
sV\u9f50
p6047
I1049
sV\u7bd3
p6048
I2
sV\u9954
p6049
I8
sV\u82d9
p6050
I1
sV\u4fdb
p6051
I1
sV\u8cdd
p6052
I3
sV\u53e3
p6053
I1147
sV\u7164
p6054
I9
sV\u5de7
p6055
I304
sV\u64ed
p6056
I1
sV\u826e
p6057
I9
sV\u9676
p6058
I547
sV\u5378
p6059
I29
sV\u5d7c
p6060
I1
sV\u9a7e
p6061
I592
sV\u8303
p6062
I161
sV\u6e86
p6063
I29
sV\u540d
p6064
I3657
sV\u910f
p6065
I3
sV\u5e11
p6066
I5
sV\u9b13
p6067
I1088
sV\u7c92
p6068
I113
sV\u5815
p6069
I423
sV\u8398
p6070
I5
sV\u691f
p6071
I3
sV\u97a0
p6072
I14
sV\u54a2
p6073
I1
sV\u7d27
p6074
I46
sV\u5ea6
p6075
I1597
sV\u8835
p6076
I1
sV\u69b4
p6077
I134
sV\u6641
p6078
I5
sV\u84c2
p6079
I49
sV\u55cc
p6080
I1
sV\u7855
p6081
I32
sV\u59d4
p6082
I467
sV\u60da
p6083
I39
sV\u895f
p6084
I662
sV\u74e2
p6085
I121
sV\u5065
p6086
I289
sV\u7ee6
p6087
I29
sV\u8ff0
p6088
I94
sV\u7f7b
p6089
I3
sV\u8981
p6090
I623
sV\u6800
p6091
I18
sV\u8f85
p6092
I111
sV\u5e8f
p6093
I181
sV\u9191
p6094
I44
sV\u5820
p6095
I31
sV\u88ab
p6096
I813
sV\u972a
p6097
I12
sV\u8eaf
p6098
I102
sV\u6d2e
p6099
I34
sV\u6332
p6100
I13
sV\u90bb
p6101
I1057
sV\u7f3a
p6102
I197
sV\u8840
p6103
I531
sV\u8e44
p6104
I348
sV\u62c7
p6105
I1
sV\u78cb
p6106
I7
sV\u7ecf
p6107
I2397
sV\u5d4e
p6108
I1
sV\u9050
p6109
I204
sV\u74d3
p6110
I1
sV\u5352
p6111
I216
sV\u9654
p6112
I13
sV\u8dd9
p6113
I4
sV\u7860
p6114
I3
sV\u5ce3
p6115
I55
sV\u7468
p6116
I1
sV\u61f1
p6117
I1
sV\u9976
p6118
I376
sV\u7df9
p6119
I1
sV\u73fd
p6120
I2
sV\u8c03
p6121
I779
sV\u6b82
p6122
I7
sV\u6a17
p6123
I29
sV\u601b
p6124
I6
sV\u829c
p6125
I418
sV\u661f
p6126
I2083
sV\u98a0
p6127
I254
sV\u5ba2
p6128
I6261
sV\u8131
p6129
I421
sV\u60b0
p6130
I13
sV\u66b4
p6131
I111
sV\u563f
p6132
I11
sV\u8bc2
p6133
I1
sV\u4ec4
p6134
I36
sV\u81c6
p6135
I67
sV\u87ca
p6136
I5
sV\u5acc
p6137
I552
sV\u65de
p6138
I2
sV\u5961
p6139
I2
sV\u686b
p6140
I1
sV\u86f4
p6141
I4
sV\u7a77
p6142
I1764
sV\u9cf8
p6143
I2
sV\u5ffa
p6144
I1
sV\u55fe
p6145
I6
sV\u8881
p6146
I76
sV\u8e85
p6147
I112
sV\u9091
p6148
I490
sV\u5593
p6149
I4
sV\u8816
p6150
I15
sV\u6c99
p6151
I2126
sV\u629d
p6152
I1
sV\u78a1
p6153
I1
sV\u7ea5
p6154
I15
sV\u9026
p6155
I37
sV\u74a9
p6156
I1
sV\u962a
p6157
I8
sV\u97bf
p6158
I5
sV\u8548
p6159
I3
sV\u79cb
p6160
I7876
sV\u5c4e
p6161
I3
sV\u6d58
p6162
I2
sV\u7960
p6163
I301
sV\u9ee5
p6164
I10
sV\u7f64
p6165
I2
sV\u94e9
p6166
I18
sV\u8272
p6167
I4855
sV\u9876
p6168
I445
sV\u5d78
p6169
I4
sV\u537c
p6170
I4
sV\u8307
p6171
I2
sV\u7292
p6172
I11
sV\u4e9a
p6173
I164
sV\u671f
p6174
I2452
sV\u7327
p6175
I3
sV\u4f2f
p6176
I379
sV1
p6177
I8
sV\u73bc
p6178
I2
sV\u573f
p6179
I1
sV\u6841
p6180
I16
sV\u4fc4
p6181
I159
sV\u80c6
p6182
I169
sV\u86ca
p6183
I22
sV\u5bcc
p6184
I494
sV\u6eda
p6185
I4
sV\u64de
p6186
I14
sV\u9367
p6187
I3
sV\u70e6
p6188
I462
sV\u696b
p6189
I229
sV\u8bec
p6190
I25
sV\u58f6
p6191
I632
sV\u5efa
p6192
I386
sV\u777f
p6193
I127
sV\u6a00
p6194
I2
sV\u8d85
p6195
I264
sV\u6c04
p6196
I1
sV\u8789
p6197
I2
sV\u6608
p6198
I1
sV\u780c
p6199
I382
sV\u5c8f
p6200
I7
sV\u4e18
p6201
I708
sV\u619d
p6202
I1
sV\u871e
p6203
I2
sV\u7ba1
p6204
I928
sV\u5c24
p6205
I177
sV\u77a9
p6206
I47
sV\u86b3
p6207
I1
sV\u51bd
p6208
I28
sV\u94bf
p6209
I208
sV\u8a40
p6210
I3
sV\u6ec3
p6211
I1
sV\u60c7
p6212
I4
sV\u8648
p6213
I1
sV\u7acb
p6214
I1397
sV\u8fd9
p6215
I28
sV\u6e58
p6216
I1176
sV\u50e7
p6217
I1666
sV\u97e9
p6218
I419
sV\u69ed
p6219
I16
sV\u8f6e
p6220
I773
sV\u8172
p6221
I1
sV\u5e78
p6222
I922
sV\u6982
p6223
I38
sV\u8007
p6224
I2
sV\u9a0b
p6225
I1
sV\u590d
p6226
I3785
sV\u7f8e
p6227
I1079
sV\u6817
p6228
I134
sV\u8e98
p6229
I1
sV\u621b
p6230
I67
sV\u9aa0
p6231
I36
sV\u9ca4
p6232
I124
sV\u53a6
p6233
I63
sV\u892d
p6234
I82
sV\u8331
p6235
I93
sV\u8535
p6236
I1
sV\u9f39
p6237
I4
sV\u7eb8
p6238
I255
sV\u523b
p6239
I258
sV\u913d
p6240
I11
sV\u70bc
p6241
I250
sV\u89c2
p6242
I954
sV\u6d45
p6243
I755
sV\u6749
p6244
I220
sV\u7351
p6245
I1
sV\u8857
p6246
I283
sV\u6bd6
p6247
I2
sV\u4f59
p6248
I457
sV\u825b
p6249
I6
sV\u67de
p6250
I7
sV\u9e63
p6251
I2
sV\u5d65
p6252
I1
sV\u5769
p6253
I1
sV\u4fee
p6254
I763
sV\u747f
p6255
I1
sV\u4f83
p6256
I9
sV\u8c85
p6257
I14
sV\u6d04
p6258
I61
sV\u6708
p6259
I10673
sV\u5b8b
p6260
I181
sV\u988d
p6261
I119
sV\u790c
p6262
I1
sV\u5793
p6263
I39
sV\u7514
p6264
I4
sV\u4f18
p6265
I165
sV\u8c1a
p6266
I1
sV\u609d
p6267
I1
sV\u7aa1
p6268
I3
sV\u7ca5
p6269
I31
sV\u5d24
p6270
I15
sV\u5728
p6271
I7216
sV\u8bab
p6272
I11
sV\u8daf
p6273
I5
sV\u87b3
p6274
I6
sV\u7c3a
p6275
I2
sV\u8b40
p6276
I3
sV\u8d44
p6277
I393
sV\u8748
p6278
I2
sV\u9554
p6279
I1
sV\u6f58
p6280
I198
sV\u80dd
p6281
I22
sV\u9ae1
p6282
I15
sV\u7b60
p6283
I140
sV\u96e9
p6284
I12
sV\u7768
p6285
I49
sV\u62f1
p6286
I108
sVr
p6287
I20
sV\u9a76
p6288
I39
sV\u70fd
p6289
I210
sV\u517c
p6290
I826
sV\u6286
p6291
I2
sV\u9b0b
p6292
I1
sV\u5211
p6293
I119
sV\u9713
p6294
I249
sV\u7092
p6295
I3
sV\u5415
p6296
I102
sV\u8f98
p6297
I68
sV\u631b
p6298
I15
sV\u201d
p6299
I17
sV\u819c
p6300
I11
sV\u7f23
p6301
I49
sV\u58a2
p6302
I1
sV\u9da4
p6303
I1
sV\u97a8
p6304
I1
sV\u5937
p6305
I550
sV\u9e39
p6306
I2
sV\u7fb8
p6307
I299
sV\u533b
p6308
I109
sV\u88c2
p6309
I175
sV\u84ca
p6310
I15
sV\u9ece
p6311
I135
sV\u7455
p6312
I85
sV\u55d4
p6313
I71
sV\u4e59
p6314
I62
sV\u835b
p6315
I8
sV\u6cda
p6316
I12
sV\u855f
p6317
I3
sV\u78e2
p6318
I1
sV\u5c65
p6319
I445
sV\u72e6
p6320
I1
sV\u5669
p6321
I2
sV\u6d6f
p6322
I4
sV\u83f0
p6323
I95
sV\u6773
p6324
I606
sV\u7977
p6325
I64
sV\u757f
p6326
I84
sV\u56fe
p6327
I840
sV\u8d81
p6328
I157
sV\u7410
p6329
I179
sV\u679d
p6330
I2913
sV\u9526
p6331
I1370
sV\u5028
p6332
I3
sV\u59b9
p6333
I46
sV\u94bb
p6334
I27
sV\u7b3a
p6335
I161
sVH
p6336
I9
sV\u594e
p6337
I1
sV\u4ed7
p6338
I332
sV\u896e
p6339
I1
sV\u65f1
p6340
I132
sV\u63f5
p6341
I1
sV\u5878
p6342
I1
sV\u917e
p6343
I1
sV\u8803
p6344
I3
sV\u638a
p6345
I8
sV\u7792
p6346
I9
sV\u5315
p6347
I29
sV\u6e17
p6348
I8
sV\u621f
p6349
I261
sV\u9ca0
p6350
I11
sV\u9aa4
p6351
I98
sV\u64b0
p6352
I13
sV\u8335
p6353
I114
sV\u5e37
p6354
I280
sV\u543b
p6355
I17
sV\u523f
p6356
I2
sV\u6d41
p6357
I5166
sV\u8fc2
p6358
I42
sV\u83ca
p6359
I678
sV\u7f4d
p6360
I96
sV\u5ecc
p6361
I3
sV\u6dd6
p6362
I1
sV\u845b
p6363
I172
sV\u6bda
p6364
I3
sV\u825f
p6365
I4
sV\u5d61
p6366
I1
sV\u5b65
p6367
I30
sV\u73ea
p6368
I112
sV\u84f0
p6369
I2
sV\u6073
p6370
I37
sV\u82f4
p6371
I9
sV\u5bfa
p6372
I1440
sV\u8089
p6373
I362
sV\u6108
p6374
I275
sV\u7f0c
p6375
I2
sV\u5b8f
p6376
I39
sV\u9491
p6377
I2
sV\u8c16
p6378
I12
sV\u669d
p6379
I293
sV\u9e22
p6380
I88
sV\u7aa5
p6381
I504
sV\u8dab
p6382
I17
sV\u4ead
p6383
I1500
sV\u8baf
p6384
I38
sV\u81b3
p6385
I79
sV\u8d40
p6386
I14
sV\u69c3
p6387
I25
sV\u4e42
p6388
I9
sV\u9550
p6389
I41
sV\u5652
p6390
I2
sV\u4fd7
p6391
I990
sV\u88d9
p6392
I262
sV\u675c
p6393
I533
sV\u59e3
p6394
I1
sV\u7b64
p6395
I3
sV\u7168
p6396
I7
sV\u886e
p6397
I97
sV\u78f9
p6398
I2
sV\u5978
p6399
I111
sV\u9a7a
p6400
I80
sV\u577c
p6401
I107
sV\u628a
p6402
I818
sV\u788e
p6403
I345
sV\u5411
p6404
I4473
sV\u631f
p6405
I82
sV\u54a6
p6406
I1
sV\u91a8
p6407
I10
sV\u52aa
p6408
I59
sV\u8431
p6409
I70
sV\u65b0
p6410
I5184
sV\u8235
p6411
I2
sV\u63b4
p6412
I1
sV\u963d
p6413
I2
sV\u533f
p6414
I27
sV\u6c41
p6415
I7
sV\u5fcc
p6416
I108
sV\u98ce
p6417
I15295
sV\u96d2
p6418
I14
sV\u53d4
p6419
I155
sV\u8f57
p6420
I11
sV\u6cd6
p6421
I1
sV\u835f
p6422
I7
sV\u5c61
p6423
I340
sV\u7ee2
p6424
I49
sV\u5a65
p6425
I2
sV\u9767
p6426
I1
sV\u74e6
p6427
I227
sV\u99f8
p6428
I70
sV\u50fe
p6429
I10
sV\u6e00
p6430
I1
sV\u8389
p6431
I2
sV\u6208
p6432
I449
sV\u7c0c
p6433
I9
sV\u7014
p6434
I1
sV\u891a
p6435
I17
sV\u659d
p6436
I33
sV\u7fa1
p6437
I625
sV\u5824
p6438
I484
sV\u73a9
p6439
I275
sV\u8eab
p6440
I4362
sV\u88af
p6441
I2
sV\u82b3
p6442
I2635
sV\u7f36
p6443
I9
sV\u5bb9
p6444
I1667
sV\u793a
p6445
I146
sV\u55bd
p6446
I10
sV\u733e
p6447
I13
sV\u8e40
p6448
I58
sV\u8844
p6449
I1
sV\u7ecb
p6450
I5
sV\u9650
p6451
I550
sV\u8bd9
p6452
I4
sV\u6a58
p6453
I269
sV\u5ae3
p6454
I15
sV\u67f1
p6455
I413
sV\u8572
p6456
I17
sV\u61f5
p6457
I16
sV\u9f76
p6458
I2
sV\u547c
p6459
I602
sV\u4f01
p6460
I13
sV\u6d82
p6461
I176
sV\u849c
p6462
I10
sV\u98a4
p6463
I6
sV\u57a6
p6464
I11
sV\u4e2b
p6465
I4
sV\u8d2d
p6466
I5
sV\u60b4
p6467
I273
sV\u7ab8
p6468
I8
sV\u563b
p6469
I14
sV\u953d
p6470
I7
sV\u4ec0
p6471
I55
sV\u8dc2
p6472
I25
sV\u6945
p6473
I1
sV\u87c6
p6474
I50
sV\u6349
p6475
I45
sV\u81ca
p6476
I20
sV\u56d0
p6477
I1
sV\u95d2
p6478
I4
sV\u8c57
p6479
I14
sV\u69da
p6480
I5
sV\u5965
p6481
I47
sV\u6e6b
p6482
I30
sV\u686f
p6483
I1
sV\u86f0
p6484
I102
sV\u6273
p6485
I13
sV\u767b
p6486
I1990
sV\u707f
p6487
I20
sV\u8e81
p6488
I25
sV\u8885
p6489
I437
sV\u6308
p6490
I63
sV\u5f8b
p6491
I400
sV\u9c8d
p6492
I72
sV\u5393
p6493
I12
sV\u9095
p6494
I20
sV\u8e16
p6495
I1
sV\u881a
p6496
I4
sV\u649d
p6497
I12
sV\u821e
p6498
I1819
sV\u7ea1
p6499
I150
sV\u5f20
p6500
I888
sV\u5924
p6501
I37
sV\u8fab
p6502
I5
sV\uff09
p6503
I823
sV\u83b3
p6504
I10
sV\u783a
p6505
I43
sV\u54bd
p6506
I476
sV\u91bf
p6507
I3
sV\u8944
p6508
I221
sV\u8348
p6509
I5
sV\u73d3
p6510
I2
sV\u84dd
p6511
I170
sV\u7af9
p6512
I3125
sV\u987a
p6513
I191
sV\u557c
p6514
I1342
sV\u4e01
p6515
I330
sV\u6c82
p6516
I25
sV\u9f0b
p6517
I29
sV\u5015
p6518
I1
sV\u6d17
p6519
I535
sV\u671b
p6520
I4307
sV\u859c
p6521
I187
sV\u611f
p6522
I1178
sV\u9fa0
p6523
I4
sV\u99a4
p6524
I1
sV\u4f2b
p6525
I243
sV\u8c2d
p6526
I50
sV\u6dac
p6527
I3
sV\u67b0
p6528
I11
sV5
p6529
I39
sV\u5d37
p6530
I7
sV\u7bb8
p6531
I101
sV\u573b
p6532
I22
sV\u75bc
p6533
I7
sV\u513f
p6534
I1491
sV\u4fc0
p6535
I1
sV\u6845
p6536
I3
sV\u86c6
p6537
I4
sV\u6249
p6538
I473
sV\u7c4d
p6539
I337
sV\u8d57
p6540
I3
sV\u875b
p6541
I1
sV\u68da
p6542
I14
sV\u5e61
p6543
I123
sV\u5269
p6544
I106
sV\u8dec
p6545
I10
sV\u696f
p6546
I8
sV\u81f4
p6547
I505
sV\u7d77
p6548
I29
sV\u5ef6
p6549
I513
sV\u95fc
p6550
I53
sV\u717f
p6551
I1
sV\u52fe
p6552
I34
sV\u9181
p6553
I16
sV\u9785
p6554
I32
sV\u7c08
p6555
I1
sV\u620c
p6556
I6
sV\u8f95
p6557
I204
sV\u6e14
p6558
I887
sV\u7b9d
p6559
I4
sV\u5a1c
p6560
I43
sV\u67a5
p6561
I63
sV\u6da9
p6562
I157
sV\u7b32
p6563
I1
sV\u5fb5
p6564
I78
sV\u82b7
p6565
I51
sV\u673a
p6566
I863
sV\u6d3e
p6567
I102
sV\u74c3
p6568
I1
sV\u9644
p6569
I140
sV\u60cb
p6570
I11
sV\u6cd3
p6571
I70
sV\u7a5c
p6572
I2
sV\u81e1
p6573
I1
sV\u6664
p6574
I36
sV\u6c68
p6575
I32
sV\u73ed
p6576
I309
sV\u956e
p6577
I17
sV\u5e74
p6578
I9364
sV\u800b
p6579
I10
sV\u7f8a
p6580
I416
sV\u8c13
p6581
I498
sV\u6b92
p6582
I16
sV\u9a9c
p6583
I5
sV\u80a0
p6584
I940
sV\u86a4
p6585
I12
sV\u6a27
p6586
I1
sV\u4faa
p6587
I15
sV\u72ac
p6588
I396
sV\u9931
p6589
I2
sV\u7eb4
p6590
I3
sV\u7141
p6591
I3
sV\u634d
p6592
I13
sV\u8bd2
p6593
I1
sV\u4ed4
p6594
I9
sV\u71d6
p6595
I4
sV\u5b5d
p6596
I232
sV\u8463
p6597
I65
sV\u8a67
p6598
I2
sV\u706b
p6599
I1751
sV\u766f
p6600
I4
sV\u7c73
p6601
I144
sV\u9ef4
p6602
I2
sV\u6e7f
p6603
I825
sV\u5583
p6604
I27
sV\u9685
p6605
I306
sV\u7704
p6606
I68
sV\u5b87
p6607
I496
sV\u828d
p6608
I44
sV\u6f14
p6609
I44
sV\u9016
p6610
I8
sV\u961a
p6611
I5
sV\u7a9d
p6612
I2
sV\u6ca9
p6613
I4
sV\u8e2a
p6614
I395
sV\u52ad
p6615
I2
sV\u97af
p6616
I15
sV\u742e
p6617
I17
sV\u5eb5
p6618
I61
sV\u83b7
p6619
I149
sV\u6c3e
p6620
I2
sV\u5242
p6621
I3
sV\u7bc7
p6622
I518
sV\u61cb
p6623
I4
sV\u67cf
p6624
I515
sV\u53d7
p6625
I571
sV\u94d9
p6626
I29
sV\u7b5c
p6627
I13
sV\u80e1
p6628
I1454
sV\u6160
p6629
I1
sV\u72ed
p6630
I76
sV\u946e
p6631
I1
sV\u5970
p6632
I2
sV\u7ef5
p6633
I406
sV\u5f74
p6634
I8
sVv
p6635
I24
sV\u867a
p6636
I31
sV\u9b07
p6637
I3
sV\u5c09
p6638
I199
sV\u4e15
p6639
I16
sV\u7317
p6640
I39
sV\u569a
p6641
I7
sV\u7f1f
p6642
I30
sV\u6b27
p6643
I16
sV\u572f
p6644
I6
sV\u51c0
p6645
I646
sV\u624d
p6646
I2061
sV\u6851
p6647
I776
sV\u5459
p6648
I2
sV\u995b
p6649
I1
sV\u8563
p6650
I20
sV\u62e2
p6651
I24
sV\u6eea
p6652
I25
sV\u54ee
p6653
I24
sV\u99f0
p6654
I2
sV\u6377
p6655
I90
sV\u8bfc
p6656
I1
sV\u9f89
p6657
I8
sV\u6c14
p6658
I3493
sV\u5618
p6659
I58
sV\u65a5
p6660
I40
sV\u8d2a
p6661
I315
sV\u9eb3
p6662
I1
sV\u6336
p6663
I3
sV\u6f3e
p6664
I249
sV\u9e48
p6665
I25
sV\u5d4a
p6666
I5
sV\u804c
p6667
I252
sV\u6ed3
p6668
I56
sV\u5adb
p6669
I1
sV\u785c
p6670
I2
sV\u83e1
p6671
I85
sV\u8fe9
p6672
I72
sV\u506c
p6673
I3
sV\u976e
p6674
I3
sV\u7bf1
p6675
I431
sV\u9972
p6676
I16
sV\u7df5
p6677
I1
sV\u5c74
p6678
I4
sV\u67f9
p6679
I2
sV\u857a
p6680
I9
sV\u69fd
p6681
I38
sV\u8f7e
p6682
I2
sV\u9603
p6683
I49
sV\u7182
p6684
I1
sV\u5505
p6685
I9
sV\u820b
p6686
I1
sV\u840f
p6687
I85
sV\u5396
p6688
I7
sV\u9698
p6689
I48
sV\u989c
p6690
I1463
sV\u7c1f
p6691
I331
sV\u8ea8
p6692
I2
sV\u522b
p6693
I4982
sV\u70ac
p6694
I47
sV\u542f
p6695
I369
sV\u68bc
p6696
I3
sV\u91c2
p6697
I1
sV\u7545
p6698
I115
sV\u54c4
p6699
I2
sV\u9bc6
p6700
I1
sV\u89d2
p6701
I802
sV\u6d55
p6702
I1
sV\u9057
p6703
I1207
sV\u4f69
p6704
I503
sV\u86f8
p6705
I19
sV\u88fc
p6706
I1
sV\u4ffe
p6707
I37
sV\u7504
p6708
I34
sV\u5987
p6709
I544
sV\u7f08
p6710
I92
sV\u7699
p6711
I16
sV\u591c
p6712
I7315
sV\u62a1
p6713
I9
sV\u8c2a
p6714
I261
sV\u50ad
p6715
I1
sV\u762e
p6716
I1
sV\u5cb5
p6717
I2
sV\u643a
p6718
I938
sV\u8dbf
p6719
I1
sV\u5a46
p6720
I87
sV\u5c4a
p6721
I12
sV\u65cf
p6722
I196
sV\u795c
p6723
I18
sV\u82e1
p6724
I17
sV\u84e5
p6725
I1
sV\u6f68
p6726
I1
sV\u70ed
p6727
I284
sV\u516c
p6728
I3013
sV\u5b70
p6729
I185
sV\u7cf5
p6730
I18
sV\u66f9
p6731
I395
sV\u847a
p6732
I45
sV\u68fd
p6733
I3
sV\u5201
p6734
I31
sV\u9703
p6735
I1
sV\u7a86
p6736
I2
sV\u8f13
p6737
I1
sV\u5296
p6738
I3
sV\u9798
p6739
I28
sV\u7b1b
p6740
I445
sV\u549a
p6741
I6
sV\u5e9e
p6742
I42
sV\u83a0
p6743
I16
sV\u6723
p6744
I9
sV\u85a4
p6745
I65
sV\u8fa8
p6746
I323
sV\u902d
p6747
I3
sV\u71ac
p6748
I28
sV\u552f
p6749
I1990
sV\u67b8
p6750
I5
sV\u69bc
p6751
I61
sV\u7241
p6752
I7
sV\u55c4
p6753
I3
sV\u9ac6
p6754
I3
sV\u9cca
p6755
I6
sV\u604d
p6756
I62
sV\u6a51
p6757
I4
sV\u88d2
p6758
I10
sV\u6c55
p6759
I1
sV\u9157
p6760
I2
sV\u72d6
p6761
I89
sV\u74da
p6762
I1
sV\u7ede
p6763
I5
sV\u8763
p6764
I25
sV\u6cea
p6765
I2025
sV\u756f
p6766
I2
sV\u7f73
p6767
I18
sV\u6177
p6768
I66
sV\u6b7b
p6769
I1713
sV\u89fc
p6770
I1
sV\u5e87
p6771
I61
sV\u878d
p6772
I321
sV\u660c
p6773
I316
sV\u8d91
p6774
I3
sV\u6c10
p6775
I6
sV\u6a14
p6776
I1
sV\u7199
p6777
I124
sV\u5018
p6778
I117
sV\u7f9d
p6779
I5
sV\u5e1c
p6780
I22
sV\u65a1
p6781
I22
sV\u63a5
p6782
I1073
sV\u712e
p6783
I3
sV\u5db1
p6784
I2
sV\u7f32
p6785
I20
sV\u5bb5
p6786
I777
sV\u6536
p6787
I925
sV\u633a
p6788
I48
sV\u693e
p6789
I1
sV\u5742
p6790
I101
sV\u7ec7
p6791
I381
sV\u62cf
p6792
I47
sV\u56d7
p6793
I1
sV\u6264
p6794
I1
sV\u6868
p6795
I52
sV\u77ed
p6796
I726
sV\u566c
p6797
I37
sV\u5a74
p6798
I141
sV\u61f9
p6799
I3
sV\u5501
p6800
I3
sV\u9003
p6801
I183
sV\u5305
p6802
I95
sV\u840b
p6803
I263
sV\u7b8a
p6804
I3
sV\u618e
p6805
I119
sV\u8813
p6806
I4
sV\u6f92
p6807
I22
sV\u7617
p6808
I18
sV\u9098
p6809
I2
sV\u539a
p6810
I276
sV\u88a8
p6811
I5
sV\u542b
p6812
I1518
sV\u972d
p6813
I399
sV\u60b8
p6814
I5
sV\u54c0
p6815
I818
sV\u97c2
p6816
I2
sV\u7949
p6817
I39
sV\u58c8
p6818
I9
sV\u6d51
p6819
I328
sV\u5f5d
p6820
I40
sV\u79de
p6821
I2
sVc
p6822
I47
sV\u67e2
p6823
I8
sV\u6de6
p6824
I2
sV\u726f
p6825
I1
sV\u5ff2
p6826
I1
sV\u6677
p6827
I23
sV\u80f8
p6828
I184
sV\u5f87
p6829
I78
sV\u9889
p6830
I14
sV\u868d
p6831
I3
sV\u6b14
p6832
I1
sV\u7099
p6833
I87
sV\u921a
p6834
I1
sV\u62a5
p6835
I1098
sV\u8c26
p6836
I37
sV\u56ad
p6837
I3
sV\u5cb1
p6838
I42
sV\u5ab5
p6839
I3
sV\u623a
p6840
I7
sV\u8bbf
p6841
I721
sV\u683e
p6842
I27
sV\u9540
p6843
I9
sV\u71c3
p6844
I47
sV\u5642
p6845
I1
sV\u65cb
p6846
I608
sV\u63cf
p6847
I13
sV\u8d50
p6848
I416
sV\u9edd
p6849
I8
sV\u5bdf
p6850
I62
sV\u82e5
p6851
I2671
sV\u76ed
p6852
I1
sV\u906e
p6853
I303
sV\u5d70
p6854
I1
sV\u8476
p6855
I3
sV\u60f9
p6856
I180
sV\u827a
p6857
I131
sV\u4f7c
p6858
I2
sV\u887e
p6859
I187
sV\u5401
p6860
I115
sV\u7682
p6861
I59
sV\u7a8a
p6862
I2
sV\u830f
p6863
I45
sV\u8913
p6864
I7
sV\u529a
p6865
I83
sV\u589e
p6866
I197
sV\u77ac
p6867
I35
sV\u7bb4
p6868
I33
sV9
p6869
I10
sV\u61b8
p6870
I2
sV\u6fbc
p6871
I2
sV\u7441
p6872
I70
sV\u9cc6
p6873
I1
sV\u7849
p6874
I11
sV\u80ce
p6875
I89
sV\u8f67
p6876
I98
sV\u97ec
p6877
I70
sV\u736f
p6878
I5
sV\u50ee
p6879
I134
sV\u6777
p6880
I11
sV\u8054
p6881
I305
sV\u9781
p6882
I1
sV\u7600
p6883
I2
sV\u9185
p6884
I58
sV\u7004
p6885
I1
sV\u858d
p6886
I1
sV\u8f91
p6887
I10
sV\u6e10
p6888
I1118
sV\u9716
p6889
I152
sV\u7399
p6890
I17
sV\u5218
p6891
I436
sV\u892a
p6892
I5
sV\u90af
p6893
I83
sV\u732e
p6894
I637
sV\u88bf
p6895
I7
sV\u6b3e
p6896
I125
sV\u9640
p6897
I79
sV\u72c3
p6898
I2
sV\u9044
p6899
I6
sV\u7cc7
p6900
I3
sV\u844c
p6901
I1
sV\u8e50
p6902
I6
sV\u8854
p6903
I710
sV\u54d7
p6904
I25
sV\u5edb
p6905
I15
sV\u6064
p6906
I49
sV\u8be9
p6907
I4
sV\u936e
p6908
I2
sV\u7ff1
p6909
I49
sV\u5e70
p6910
I39
sV\u8776
p6911
I524
sV\u8b7e
p6912
I1
sV\u5b09
p6913
I63
sV\u860b
p6914
I345
sV\u798a
p6915
I39
sV\u638e
p6916
I5
sV\u4f11
p6917
I1640
sV\u6d92
p6918
I1
sV\u9c9c
p6919
I466
sV\u5b9e
p6920
I580
sV\u80a4
p6921
I112
sV\u4fa6
p6922
I5
sV\u7eb0
p6923
I5
sV\u8339
p6924
I34
sV\u4e3b
p6925
I1845
sV\u8d3d
p6926
I4
sV\u6cbc
p6927
I209
sV\u7145
p6928
I1
sV\u7b49
p6929
I297
sVM
p6930
I6
sV\u99ca
p6931
I3
sV\u8dd2
p6932
I4
sV\u5d5d
p6933
I4
sV\u65e2
p6934
I916
sV\u766b
p6935
I7
sV\u706f
p6936
I1299
sV\u53ee
p6937
I11
sV\u5df2
p6938
I4958
sV\u6477
p6939
I2
sV\u9085
p6940
I46
sV\u7104
p6941
I1
sV\u7b08
p6942
I28
sV\u9616
p6943
I120
sV\u901a
p6944
I1986
sV\u7c9d
p6945
I14
sV\u9a1e
p6946
I7
sV\u66a1
p6947
I1
sV\u8e26
p6948
I3
sV\u97ab
p6949
I1
sV\u91af
p6950
I15
sV\u6636
p6951
I3
sV\u6a3e
p6952
I14
sV\u9b48
p6953
I16
sV\u6bd3
p6954
I5
sV\u55d7
p6955
I2
sV\u9cdd
p6956
I2
sV\u7d5c
p6957
I29
sV\u6760
p6958
I5
sV\u80e5
p6959
I91
sV\u556c
p6960
I5
sV\u5f70
p6961
I85
sV\u5974
p6962
I195
sVz
p6963
I122
sV\u6cfd
p6964
I783
sV\u5005
p6965
I5
sV\u7e86
p6966
I6
sV\u5a09
p6967
I49
sV\u870b
p6968
I1
sV\u810f
p6969
I12
sV\u4e11
p6970
I123
sV\uff1b
p6971
I106
sV\u5a9e
p6972
I2
sV\u6323
p6973
I3
sV\u6d27
p6974
I8
sV\u4ea6
p6975
I3277
sV\u8ba8
p6976
I102
sVF
p6977
I9
sV\u9e31
p6978
I84
sV\u8239
p6979
I1227
sV\u8c3d
p6980
I1
sV\u51c4
p6981
I804
sV\u7a49
p6982
I1
sV\u82ce
p6983
I40
sV\u6855
p6984
I1
sV\u9557
p6985
I4
sV\u76d6
p6986
I729
sV\u7ade
p6987
I361
sV\u8363
p6988
I1212
sV\u64e2
p6989
I76
sV\u8d67
p6990
I6
sV\u6ee6
p6991
I1
sV\u776b
p6992
I24
sV\u7b73
p6993
I2
sV\u99f4
p6994
I1
sV\u6577
p6995
I174
sV\u83f8
p6996
I3
sV\u8dfc
p6997
I47
sV\u9981
p6998
I24
sV\u7800
p6999
I13
sV\u4e8f
p7000
I106
sV\u8191
p7001
I2
sV\u6010
p7002
I1
sV\u6614
p7003
I1729
sV\u5c18
p7004
I3911
sV\u521c
p7005
I6
sV\u6fa5
p7006
I18
sV\u4e24
p7007
I2387
sV\u65a9
p7008
I145
sV\u51b1
p7009
I4
sV\u94b3
p7010
I13
sV\u7332
p7011
I1
sV\u653e
p7012
I712
sV\u9e44
p7013
I152
sV\u5146
p7014
I120
sV\u68cb
p7015
I317
sV\u574a
p7016
I105
sV\u6ecf
p7017
I1
sVP
p7018
I14
sV\u8654
p7019
I82
sV\u50db
p7020
I1
sV\u6860
p7021
I4
sV\u8fe5
p7022
I533
sV\u85e9
p7023
I153
sV\u9d6e
p7024
I4
sV\u6df9
p7025
I287
sV\u8f7a
p7026
I61
sV\u63fd
p7027
I82
sV\u857e
p7028
I2
sV\u9207
p7029
I7
sV\u880b
p7030
I1
sV\u8e0f
p7031
I390
sV\u6d8e
p7032
I49
sV\u6392
p7033
I318
sV\u7a17
p7034
I14
sV\u5996
p7035
I268
sV\u701b
p7036
I190
sV\u84a8
p7037
I55
sV\u7aac
p7038
I1
sV\u9131
p7039
I35
sV\u70b0
p7040
I11
sV\u76b4
p7041
I29
sV\u8d39
p7042
I158
sV\u6cb8
p7043
I98
sV\u62bc
p7044
I21
sV\u7941
p7045
I26
sV\u58c0
p7046
I1
sV\u7f45
p7047
I44
sV\u54c8
p7048
I1
sV\u8dce
p7049
I202
sV\u6151
p7050
I25
sV\u6755
p7051
I4
sV\u905b
p7052
I1
sV\u7fda
p7053
I15
sV\u965f
p7054
I121
sV\u75de
p7055
I1
sV\u4f65
p7056
I4
sV\u61e6
p7057
I30
sV\u786b
p7058
I3
sV\u5dee
p7059
I631
sV\u7473
p7060
I2
sV\u53f2
p7061
I675
sV\u8cf8
p7062
I7
sV\u607b
p7063
I118
sV\u9881
p7064
I63
sV\u7f04
p7065
I167
sV\u9489
p7066
I23
sV\u7508
p7067
I1
sV\u4f8f
p7068
I10
sV\u6110
p7069
I1
sV\u8695
p7070
I220
sV\u6714
p7071
I390
sV\u68a1
p7072
I3
sV\u8a22
p7073
I1
sV\u6ea5
p7074
I13
sV\u4f24
p7075
I1478
sV\u8026
p7076
I18
sV\u64a9
p7077
I86
sV\u862a
p7078
I1
sV\u5aad
p7079
I3
sV\u56b5
p7080
I4
sV\u8bb7
p7081
I3
sV\u81bb
p7082
I101
sV\u6e3a
p7083
I358
sV\u9f44
p7084
I1
sV\u8150
p7085
I66
sV\u65d3
p7086
I3
sV8
p7087
I8
sV\u9cd9
p7088
I1
sV\u51db
p7089
I84
sV\u57df
p7090
I172
sV\u6960
p7091
I29
sV\u7aed
p7092
I111
sV\u5170
p7093
I1599
sV\u62fd
p7094
I19
sV\u5e05
p7095
I68
sV\u5409
p7096
I139
sV\u8513
p7097
I213
sV\u6292
p7098
I2
sV\u5e9a
p7099
I53
sV\u771f
p7100
I1885
sV\u85a8
p7101
I13
sV\u592b
p7102
I1517
sV\u7bac
p7103
I24
sV\u5f2f
p7104
I126
sV\u5533
p7105
I102
sV\u9635
p7106
I298
sV\u8c39
p7107
I4
sV\u6db8
p7108
I63
sV\u9ac2
p7109
I1
sV\u55c8
p7110
I8
sV\u96ca
p7111
I8
sV\u82d2
p7112
I81
sV\u6655
p7113
I53
sV\u7eda
p7114
I16
sV\u8d63
p7115
I5
sV\u8367
p7116
I144
sV\u7f6f
p7117
I4
sV\u8df8
p7118
I97
sV\u83fc
p7119
I23
sV\u677f
p7120
I112
sV\u7a00
p7121
I1182
sV\u680c
p7122
I7
sV\u6210
p7123
I4639
sV\u6414
p7124
I112
sV\u9b16
p7125
I4
sV\u5e18
p7126
I1064
sV\u9d1a
p7127
I1
sV\u501c
p7128
I16
sV\u971e
p7129
I1665
sV\u6ba1
p7130
I10
sV\u7f2e
p7131
I5
sV\u96b3
p7132
I78
sV\u88b7
p7133
I15
sV\u6b36
p7134
I1
sV\u4fb9
p7135
I2
sV\u6d3a
p7136
I1
sV\u84bf
p7137
I248
sV\u7ec3
p7138
I220
sV\u5942
p7139
I11
sV\u9648
p7140
I801
sV\u884c
p7141
I7785
sV\u4f4e
p7142
I1156
sV\u8be1
p7143
I35
sV\u4ee3
p7144
I762
sV\u6c64
p7145
I253
sV\u87e9
p7146
I1
sV\u6668
p7147
I919
sV\u79ed
p7148
I4
sV\u9172
p7149
I55
sV\u5474
p7150
I2
sV\u9e03
p7151
I2
sV\u5709
p7152
I5
sV\u8c0f
p7153
I275
sV\u6f8e
p7154
I3
sV\u7817
p7155
I1
sV\u579e
p7156
I5
sV\u6027
p7157
I868
sV\u86a8
p7158
I5
sV\u992d
p7159
I1
sV\u9535
p7160
I153
sV\u813d
p7161
I1
sV\u60bc
p7162
I24
sV\u7b41
p7163
I1
sV\u5cc4
p7164
I19
sV\u8fce
p7165
I1182
sV\u6555
p7166
I73
sV\u9857
p7167
I3
sV\u7bd6
p7168
I1
sV\u69e2
p7169
I1
sVg
p7170
I38
sV\u6877
p7171
I11
sV\u80fc
p7172
I9
sV\u9a81
p7173
I13
sV\u7708
p7174
I7
sV\u888d
p7175
I306
sV\u690c
p7176
I1
sV\u5f18
p7177
I105
sV\u8822
p7178
I44
sV\u6ca5
p7179
I127
sV\u52b1
p7180
I24
sV\u97b3
p7181
I1
sV\u4eb9
p7182
I26
sV\u85bf
p7183
I2
sV\u663e
p7184
I79
sV\u6bcb
p7185
I8
sV\u544a
p7186
I207
sV\u4e4e
p7187
I181
sV\u8350
p7188
I494
sV\u67d3
p7189
I391
sV\u7f58
p7190
I30
sV\u53db
p7191
I30
sV\u90dd
p7192
I4
sV\u715c
p7193
I1
sV\u55df
p7194
I786
sV\u6b60
p7195
I5
sV\u4fe3
p7196
I3
sV\u6d64
p7197
I1
sV\u86e9
p7198
I140
sV\u6768
p7199
I1233
sV\u72f1
p7200
I108
sV\u5370
p7201
I474
sV\u5574
p7202
I2
sV\u6ef9
p7203
I17
sV\u8c7a
p7204
I98
sV\u867e
p7205
I69
sV\u5a01
p7206
I569
sV\u5609
p7207
I587
sV\u748a
p7208
I1
sV\u8713
p7209
I30
sV\u6092
p7210
I18
sV\u731b
p7211
I217
sV\u5c9a
p7212
I267
sV\u751f
p7213
I9116
sV\u6127
p7214
I584
sV\u79ac
p7215
I1
sV\u73b0
p7216
I31
sV\u75b4
p7217
I12
sV\u803d
p7218
I100
sV\u5bc0
p7219
I5
sV\u98c2
p7220
I1
sV\u6251
p7221
I184
sV\u7ad6
p7222
I66
sV\u955f
p7223
I3
sV\u62e6
p7224
I6
sV\u99ec
p7225
I1
sV\u95f4
p7226
I3393
sV\u6977
p7227
I11
sV\u8ff8
p7228
I176
sV\u637b
p7229
I15
sV\u81fc
p7230
I34
sV\u5883
p7231
I604
sV\u9189
p7232
I2870
sV\u8f8d
p7233
I107
sV\u6e0c
p7234
I120
sV\u6da1
p7235
I26
sV\u61a9
p7236
I94
sV\u9cab
p7237
I6
sV\u5fad
p7238
I23
sV\u90b3
p7239
I6
sV\u84bb
p7240
I2
sV\u6b3a
p7241
I338
sV\u82bf
p7242
I1
sV\u5546
p7243
I547
sV\u534a
p7244
I2596
sV\u8450
p7245
I1
sV\u52df
p7246
I18
sV\u6c60
p7247
I2585
sV\u8be5
p7248
I20
sV\u6068
p7249
I1815
sV\u996e
p7250
I1242
sV\u75f1
p7251
I1
sV\u5470
p7252
I1
sV\u73f5
p7253
I1
sV\u8d76
p7254
I1
sV\u67fd
p7255
I34
sV\u817e
p7256
I451
sV\u7586
p7257
I159
sV\u8c0b
p7258
I371
sV\u4f0d
p7259
I80
sV\u8a0f
p7260
I10
sV\u9898
p7261
I757
sV\u741b
p7262
I15
sV\u5b9a
p7263
I1313
sV\u969c
p7264
I182
sV\u721f
p7265
I3
sV\u6627
p7266
I115
sV\u7eac
p7267
I56
sV\u9531
p7268
I8
sV\u72b4
p7269
I3
sV\u7d41
p7270
I1
sV\u5ac4
p7271
I1
sV\u89ce
p7272
I4
sV\u6551
p7273
I166
sV\u87d2
p7274
I10
sV\u6355
p7275
I49
sV\u9e57
p7276
I57
sV\u7bda
p7277
I15
sV\u925f
p7278
I1
sV\u8863
p7279
I4099
sV\u65e6
p7280
I401
sV\u9eec
p7281
I1
sV\u59ee
p7282
I37
sV\u94f0
p7283
I3
sV\u88f8
p7284
I8
sV\u627f
p7285
I839
sV\u9c81
p7286
I362
sV\u5983
p7287
I272
sV\u9a85
p7288
I50
sV\u7b04
p7289
I19
sV\u571c
p7290
I22
sV\u901e
p7291
I55
sV\u6ca1
p7292
I780
sV\u8e22
p7293
I1
sV\u8426
p7294
I389
sV\u822a
p7295
I84
sV\u5ead
p7296
I2403
sV\u79c3
p7297
I33
sV\u5e42
p7298
I96
sV\u9b44
p7299
I354
sV\u77c7
p7300
I2
sV\u5446
p7301
I1
sV\u6dcb
p7302
I64
sV\u524a
p7303
I134
sV\u6bcf
p7304
I907
sV\u8354
p7305
I110
sV\u5fd7
p7306
I744
sV\u98d9
p7307
I198
sV\u55db
p7308
I2
sV\u53df
p7309
I282
sV\u6b64
p7310
I7888
sV\u6168
p7311
I98
sV\u7eed
p7312
I321
sV\u5f6c
p7313
I16
sV\u9672
p7314
I49
sV\u72f5
p7315
I1
sV\u5374
p7316
I2179
sV\u68f9
p7317
I662
sV\u5c01
p7318
I899
sV\u7e82
p7319
I24
sV\u5a05
p7320
I9
sV\u9707
p7321
I165
sV\u7486
p7322
I6
sV\u728a
p7323
I87
sV\u4e0d
p7324
I25702
sV\u8b0f
p7325
I5
sV\u7f17
p7326
I25
sV\u5c96
p7327
I71
sV\u9998
p7328
I7
sV\u5a9a
p7329
I226
sV\u509e
p7330
I14
sV\u4ea2
p7331
I11
sV\u8ba4
p7332
I225
sV\u81a8
p7333
I1
sV\u9e2d
p7334
I92
sV\u5133
p7335
I1
sV\u8839
p7336
I122
sV\u69b8
p7337
I2
sV\u7c41
p7338
I139
sV\u5bc4
p7339
I1780
sV\u7049
p7340
I8
sV\u6e4d
p7341
I120
sV\u955b
p7342
I26
sV\u6ee2
p7343
I6
sV\u64e6
p7344
I1
sV\u58ee
p7345
I672
sV\u95f0
p7346
I56
sV\u9f81
p7347
I6
sV\u4e8b
p7348
I5801
sV\u6014
p7349
I1
sV\u7b99
p7350
I6
sV\u5a18
p7351
I116
sV\u931e
p7352
I1
sV\u6fa1
p7353
I10
sV\u8d22
p7354
I85
sV\u69a5
p7355
I1
sV\u8726
p7356
I1
sV\u63a9
p7357
I1094
sV\u5dad
p7358
I1
sV\u7b2e
p7359
I4
sV\u7532
p7360
I483
sV\u51b5
p7361
I834
sV\u80bf
p7362
I19
sV\u5d42
p7363
I2
sV\u6ecb
p7364
I263
sV\u8650
p7365
I28
sV\u62d3
p7366
I36
sVT
p7367
I12
sV\u5cd7
p7368
I1
sV\u56db
p7369
I2673
sV\u745c
p7370
I21
sV\u89e5
p7371
I69
sV\u6864
p7372
I3
sV\u83e9
p7373
I29
sV\u9b6e
p7374
I1
sV\u77f1
p7375
I1
sV\u5670
p7376
I2
sV\u8f76
p7377
I8
sV\u6bf9
p7378
I6
sV\u5f01
p7379
I39
sV\u9a03
p7380
I13
sV\u718a
p7381
I146
sV\u6592
p7382
I8
sV\u9a98
p7383
I10
sV\u949c
p7384
I11
sV\u8ea0
p7385
I5
sV\u88a4
p7386
I3
sV\u76b0
p7387
I1
sV\u5233
p7388
I33
sV\u853d
p7389
I228
sV\u64bc
p7390
I102
sV\u7945
p7391
I4
sV\u91ca
p7392
I145
sV\u6d4d
p7393
I10
sV\u8bce
p7394
I3
sV\u6751
p7395
I994
sV\u6155
p7396
I236
sV\u5b59
p7397
I780
sV\u965b
p7398
I86
sV\u73de
p7399
I1
sV\u5bee
p7400
I45
sV\u96f0
p7401
I19
sV\u90f4
p7402
I9
sV\u4ff6
p7403
I7
sV\u667b
p7404
I13
sV\u84fc
p7405
I102
sV\u7f00
p7406
I246
sV\u5b83
p7407
I11
sV\u9885
p7408
I3
sV\u4f8b
p7409
I38
sV\u300a
p7410
I723
sV\u8691
p7411
I1
sV\u6710
p7412
I3
sV\u6114
p7413
I50
sV\u7a99
p7414
I1
sV\u4f20
p7415
I1918
sV\u8c22
p7416
I1445
sV\u5cad
p7417
I949
sV\u56b1
p7418
I3
sV\u7432
p7419
I1
sV\u683a
p7420
I1
sV\u623e
p7421
I48
sV\u5c42
p7422
I502
sV\u75c7
p7423
I2
sV\u5646
p7424
I5
sV\u8d4c
p7425
I50
sV\u8154
p7426
I4
sV\u755c
p7427
I19
sV\u6f60
p7428
I1
sV\u5d6c
p7429
I117
sV\u9a6e
p7430
I20
sV\u76f1
p7431
I19
sV\u5770
p7432
I32
sV\u5174
p7433
I1677
sV\u8e76
p7434
I30
sV\u827e
p7435
I62
sV\u5e01
p7436
I41
sV\u9b03
p7437
I13
sV\u7686
p7438
I1688
sV\u708a
p7439
I79
sV\u6a8e
p7440
I1
sV\u6492
p7441
I13
sV\u5e96
p7442
I42
sV\u529e
p7443
I22
sV\u6b23
p7444
I251
sV\u83a8
p7445
I1
sV\u9631
p7446
I21
sV\u77b0
p7447
I58
sV\u9035
p7448
I39
sV\u843d
p7449
I6070
sV\u65bc
p7450
I90
sV\u7e41
p7451
I887
sV\u96c6
p7452
I470
sV\u53c8
p7453
I2063
sV\u90ca
p7454
I781
sV\u6c4d
p7455
I18
sV\u6055
p7456
I17
sV\u7ed6
p7457
I1
sV\u72de
p7458
I51
sV\u4e61
p7459
I2541
sV\u8b63
p7460
I1
sV\u6ce2
p7461
I2658
sV\u66e6
p7462
I44
sV\u7f6b
p7463
I2
sV\u796f
p7464
I34
sV\u7373
p7465
I1
sV\u54f2
p7466
I121
sV\u6d77
p7467
I4206
sV\u8bf8
p7468
I909
sV\u677b
p7469
I1
s.